

Microchip Technology PIC LITE Macro Assembler V1.12 build 49521 
                                                                                               Fri Jan 04 22:28:26 2013

HI-TECH Software Omniscient Code Generator (Lite mode) build 49521
     1  0000                     opt subtitle "HI-TECH Software Omniscient Code Generator (Lite mode) build 49521"
     2                           opt subtitle "HI-TECH Software Omniscient Code Generator (Lite mode) build 49521"
     3                           
     4                           opt pagewidth 120
     5                           
     6                           	opt lm
     7                           
     8                           	processor	16F887
     9                           clrc	macro
    10  0000                     	endm
    11                           opt subtitle "HI-TECH Software Omniscient Code Generator (Lite mode) build 49521"
    12                           
    13  0000                     	endm
    14                           opt subtitle "HI-TECH Software Omniscient Code Generator (Lite mode) build 49521"
    15                           
    16  0000                     	endm
    17                           opt subtitle "HI-TECH Software Omniscient Code Generator (Lite mode) build 49521"
    18                           
    19  0000                     	endm
    20                           opt subtitle "HI-TECH Software Omniscient Code Generator (Lite mode) build 49521"
    21                           
    22  0000                     	endm
    23                           opt subtitle "HI-TECH Software Omniscient Code Generator (Lite mode) build 49521"
    24                           
    25  0000                     	endm
    26                           opt subtitle "HI-TECH Software Omniscient Code Generator (Lite mode) build 49521"
    27                           
    28  0000                     	endm
    29                           opt subtitle "HI-TECH Software Omniscient Code Generator (Lite mode) build 49521"
    30                           
    31  0000                     	endm
    32  0000                     indf	equ	0
    33  0000                     indf0	equ	0
    34  0002                     pc	equ	2
    35  0002                     pcl	equ	2
    36  0003                     status	equ	3
    37  0004                     fsr	equ	4
    38  0004                     fsr0	equ	4
    39  0001                     c	equ	1
    40  0000                     z	equ	0
    41  000A                     pclath	equ	10
    42                           opt subtitle "HI-TECH Software Omniscient Code Generator (Lite mode) build 49521"
    43  0000                     INDF equ 00h ;# 
    44                           opt subtitle "HI-TECH Software Omniscient Code Generator (Lite mode) build 49521"
    45  0001                     TMR0 equ 01h ;# 
    46                           opt subtitle "HI-TECH Software Omniscient Code Generator (Lite mode) build 49521"
    47  0002                     PCL equ 02h ;# 
    48                           opt subtitle "HI-TECH Software Omniscient Code Generator (Lite mode) build 49521"
    49  0003                     STATUS equ 03h ;# 
    50                           opt subtitle "HI-TECH Software Omniscient Code Generator (Lite mode) build 49521"
    51  0004                     FSR equ 04h ;# 
    52                           opt subtitle "HI-TECH Software Omniscient Code Generator (Lite mode) build 49521"
    53  0005                     PORTA equ 05h ;# 
    54                           opt subtitle "HI-TECH Software Omniscient Code Generator (Lite mode) build 49521"
    55  0006                     PORTB equ 06h ;# 
    56                           opt subtitle "HI-TECH Software Omniscient Code Generator (Lite mode) build 49521"
    57  0007                     PORTC equ 07h ;# 
    58                           opt subtitle "HI-TECH Software Omniscient Code Generator (Lite mode) build 49521"
    59  0008                     PORTD equ 08h ;# 
    60                           opt subtitle "HI-TECH Software Omniscient Code Generator (Lite mode) build 49521"
    61  0009                     PORTE equ 09h ;# 
    62                           opt subtitle "HI-TECH Software Omniscient Code Generator (Lite mode) build 49521"
    63  000A                     PCLATH equ 0Ah ;# 
    64                           opt subtitle "HI-TECH Software Omniscient Code Generator (Lite mode) build 49521"
    65  000B                     INTCON equ 0Bh ;# 
    66                           opt subtitle "HI-TECH Software Omniscient Code Generator (Lite mode) build 49521"
    67  000C                     PIR1 equ 0Ch ;# 
    68                           opt subtitle "HI-TECH Software Omniscient Code Generator (Lite mode) build 49521"
    69  000D                     PIR2 equ 0Dh ;# 
    70                           opt subtitle "HI-TECH Software Omniscient Code Generator (Lite mode) build 49521"
    71  000E                     TMR1 equ 0Eh ;# 
    72                           opt subtitle "HI-TECH Software Omniscient Code Generator (Lite mode) build 49521"
    73  000E                     TMR1L equ 0Eh ;# 
    74                           opt subtitle "HI-TECH Software Omniscient Code Generator (Lite mode) build 49521"
    75  000F                     TMR1H equ 0Fh ;# 
    76                           opt subtitle "HI-TECH Software Omniscient Code Generator (Lite mode) build 49521"
    77  0010                     T1CON equ 010h ;# 
    78                           opt subtitle "HI-TECH Software Omniscient Code Generator (Lite mode) build 49521"
    79  0011                     TMR2 equ 011h ;# 
    80                           opt subtitle "HI-TECH Software Omniscient Code Generator (Lite mode) build 49521"
    81  0012                     T2CON equ 012h ;# 
    82                           opt subtitle "HI-TECH Software Omniscient Code Generator (Lite mode) build 49521"
    83  0013                     SSPBUF equ 013h ;# 
    84                           opt subtitle "HI-TECH Software Omniscient Code Generator (Lite mode) build 49521"
    85  0014                     SSPCON equ 014h ;# 
    86                           opt subtitle "HI-TECH Software Omniscient Code Generator (Lite mode) build 49521"
    87  0015                     CCPR1 equ 015h ;# 
    88                           opt subtitle "HI-TECH Software Omniscient Code Generator (Lite mode) build 49521"
    89  0015                     CCPR1L equ 015h ;# 
    90                           opt subtitle "HI-TECH Software Omniscient Code Generator (Lite mode) build 49521"
    91  0016                     CCPR1H equ 016h ;# 
    92                           opt subtitle "HI-TECH Software Omniscient Code Generator (Lite mode) build 49521"
    93  0017                     CCP1CON equ 017h ;# 
    94                           opt subtitle "HI-TECH Software Omniscient Code Generator (Lite mode) build 49521"
    95  0018                     RCSTA equ 018h ;# 
    96                           opt subtitle "HI-TECH Software Omniscient Code Generator (Lite mode) build 49521"
    97  0019                     TXREG equ 019h ;# 
    98                           opt subtitle "HI-TECH Software Omniscient Code Generator (Lite mode) build 49521"
    99  001A                     RCREG equ 01Ah ;# 
   100                           opt subtitle "HI-TECH Software Omniscient Code Generator (Lite mode) build 49521"
   101  001B                     CCPR2 equ 01Bh ;# 
   102                           opt subtitle "HI-TECH Software Omniscient Code Generator (Lite mode) build 49521"
   103  001B                     CCPR2L equ 01Bh ;# 
   104                           opt subtitle "HI-TECH Software Omniscient Code Generator (Lite mode) build 49521"
   105  001C                     CCPR2H equ 01Ch ;# 
   106                           opt subtitle "HI-TECH Software Omniscient Code Generator (Lite mode) build 49521"
   107  001D                     CCP2CON equ 01Dh ;# 
   108                           opt subtitle "HI-TECH Software Omniscient Code Generator (Lite mode) build 49521"
   109  001E                     ADRESH equ 01Eh ;# 
   110                           opt subtitle "HI-TECH Software Omniscient Code Generator (Lite mode) build 49521"
   111  001F                     ADCON0 equ 01Fh ;# 
   112                           opt subtitle "HI-TECH Software Omniscient Code Generator (Lite mode) build 49521"
   113  0081                     OPTION_REG equ 081h ;# 
   114                           opt subtitle "HI-TECH Software Omniscient Code Generator (Lite mode) build 49521"
   115  0085                     TRISA equ 085h ;# 
   116                           opt subtitle "HI-TECH Software Omniscient Code Generator (Lite mode) build 49521"
   117  0086                     TRISB equ 086h ;# 
   118                           opt subtitle "HI-TECH Software Omniscient Code Generator (Lite mode) build 49521"
   119  0087                     TRISC equ 087h ;# 
   120                           opt subtitle "HI-TECH Software Omniscient Code Generator (Lite mode) build 49521"
   121  0088                     TRISD equ 088h ;# 
   122                           opt subtitle "HI-TECH Software Omniscient Code Generator (Lite mode) build 49521"
   123  0089                     TRISE equ 089h ;# 
   124                           opt subtitle "HI-TECH Software Omniscient Code Generator (Lite mode) build 49521"
   125  008C                     PIE1 equ 08Ch ;# 
   126                           opt subtitle "HI-TECH Software Omniscient Code Generator (Lite mode) build 49521"
   127  008D                     PIE2 equ 08Dh ;# 
   128                           opt subtitle "HI-TECH Software Omniscient Code Generator (Lite mode) build 49521"
   129  008E                     PCON equ 08Eh ;# 
   130                           opt subtitle "HI-TECH Software Omniscient Code Generator (Lite mode) build 49521"
   131  008F                     OSCCON equ 08Fh ;# 
   132                           opt subtitle "HI-TECH Software Omniscient Code Generator (Lite mode) build 49521"
   133  0090                     OSCTUNE equ 090h ;# 
   134                           opt subtitle "HI-TECH Software Omniscient Code Generator (Lite mode) build 49521"
   135  0091                     SSPCON2 equ 091h ;# 
   136                           opt subtitle "HI-TECH Software Omniscient Code Generator (Lite mode) build 49521"
   137  0092                     PR2 equ 092h ;# 
   138                           opt subtitle "HI-TECH Software Omniscient Code Generator (Lite mode) build 49521"
   139  0093                     SSPADD equ 093h ;# 
   140                           opt subtitle "HI-TECH Software Omniscient Code Generator (Lite mode) build 49521"
   141  0093                     SSPMSK equ 093h ;# 
   142                           opt subtitle "HI-TECH Software Omniscient Code Generator (Lite mode) build 49521"
   143  0093                     MSK equ 093h ;# 
   144                           opt subtitle "HI-TECH Software Omniscient Code Generator (Lite mode) build 49521"
   145  0094                     SSPSTAT equ 094h ;# 
   146                           opt subtitle "HI-TECH Software Omniscient Code Generator (Lite mode) build 49521"
   147  0095                     WPUB equ 095h ;# 
   148                           opt subtitle "HI-TECH Software Omniscient Code Generator (Lite mode) build 49521"
   149  0096                     IOCB equ 096h ;# 
   150                           opt subtitle "HI-TECH Software Omniscient Code Generator (Lite mode) build 49521"
   151  0097                     VRCON equ 097h ;# 
   152                           opt subtitle "HI-TECH Software Omniscient Code Generator (Lite mode) build 49521"
   153  0098                     TXSTA equ 098h ;# 
   154                           opt subtitle "HI-TECH Software Omniscient Code Generator (Lite mode) build 49521"
   155  0099                     SPBRG equ 099h ;# 
   156                           opt subtitle "HI-TECH Software Omniscient Code Generator (Lite mode) build 49521"
   157  009A                     SPBRGH equ 09Ah ;# 
   158                           opt subtitle "HI-TECH Software Omniscient Code Generator (Lite mode) build 49521"
   159  009B                     PWM1CON equ 09Bh ;# 
   160                           opt subtitle "HI-TECH Software Omniscient Code Generator (Lite mode) build 49521"
   161  009C                     ECCPAS equ 09Ch ;# 
   162                           opt subtitle "HI-TECH Software Omniscient Code Generator (Lite mode) build 49521"
   163  009D                     PSTRCON equ 09Dh ;# 
   164                           opt subtitle "HI-TECH Software Omniscient Code Generator (Lite mode) build 49521"
   165  009E                     ADRESL equ 09Eh ;# 
   166                           opt subtitle "HI-TECH Software Omniscient Code Generator (Lite mode) build 49521"
   167  009F                     ADCON1 equ 09Fh ;# 
   168                           opt subtitle "HI-TECH Software Omniscient Code Generator (Lite mode) build 49521"
   169  0105                     WDTCON equ 0105h ;# 
   170                           opt subtitle "HI-TECH Software Omniscient Code Generator (Lite mode) build 49521"
   171  0107                     CM1CON0 equ 0107h ;# 
   172                           opt subtitle "HI-TECH Software Omniscient Code Generator (Lite mode) build 49521"
   173  0108                     CM2CON0 equ 0108h ;# 
   174                           opt subtitle "HI-TECH Software Omniscient Code Generator (Lite mode) build 49521"
   175  0109                     CM2CON1 equ 0109h ;# 
   176                           opt subtitle "HI-TECH Software Omniscient Code Generator (Lite mode) build 49521"
   177  010C                     EEDATA equ 010Ch ;# 
   178                           opt subtitle "HI-TECH Software Omniscient Code Generator (Lite mode) build 49521"
   179  010C                     EEDAT equ 010Ch ;# 
   180                           opt subtitle "HI-TECH Software Omniscient Code Generator (Lite mode) build 49521"
   181  010D                     EEADR equ 010Dh ;# 
   182                           opt subtitle "HI-TECH Software Omniscient Code Generator (Lite mode) build 49521"
   183  010E                     EEDATH equ 010Eh ;# 
   184                           opt subtitle "HI-TECH Software Omniscient Code Generator (Lite mode) build 49521"
   185  010F                     EEADRH equ 010Fh ;# 
   186                           opt subtitle "HI-TECH Software Omniscient Code Generator (Lite mode) build 49521"
   187  0185                     SRCON equ 0185h ;# 
   188                           opt subtitle "HI-TECH Software Omniscient Code Generator (Lite mode) build 49521"
   189  0187                     BAUDCTL equ 0187h ;# 
   190                           opt subtitle "HI-TECH Software Omniscient Code Generator (Lite mode) build 49521"
   191  0188                     ANSEL equ 0188h ;# 
   192                           opt subtitle "HI-TECH Software Omniscient Code Generator (Lite mode) build 49521"
   193  0189                     ANSELH equ 0189h ;# 
   194                           opt subtitle "HI-TECH Software Omniscient Code Generator (Lite mode) build 49521"
   195  018C                     EECON1 equ 018Ch ;# 
   196                           opt subtitle "HI-TECH Software Omniscient Code Generator (Lite mode) build 49521"
   197  018D                     EECON2 equ 018Dh ;# 
   198                           opt subtitle "HI-TECH Software Omniscient Code Generator (Lite mode) build 49521"
   199                           
   200                           opt pagewidth 120
   201                           
   202                           	opt lm
   203                           
   204                           	processor	16F887
   205                           clrc	macro
   206                           	bcf	3,0
   207                           	endm
   208                           clrz	macro
   209                           	bcf	3,2
   210                           	endm
   211                           setc	macro
   212                           	bsf	3,0
   213                           	endm
   214                           setz	macro
   215                           	bsf	3,2
   216                           	endm
   217                           skipc	macro
   218                           	btfss	3,0
   219                           	endm
   220                           skipz	macro
   221                           	btfss	3,2
   222                           	endm
   223                           skipnc	macro
   224                           	btfsc	3,0
   225                           	endm
   226                           skipnz	macro
   227  0017                     _CCP1CON	set	0x17
   228                           opt subtitle "HI-TECH Software Omniscient Code Generator (Lite mode) build 49521"
   229  001D                     _CCP2CON	set	0x1D
   230                           opt subtitle "HI-TECH Software Omniscient Code Generator (Lite mode) build 49521"
   231  0015                     _CCPR1L	set	0x15
   232                           opt subtitle "HI-TECH Software Omniscient Code Generator (Lite mode) build 49521"
   233  001B                     _CCPR2L	set	0x1B
   234                           opt subtitle "HI-TECH Software Omniscient Code Generator (Lite mode) build 49521"
   235  0005                     _PORTA	set	0x5
   236                           opt subtitle "HI-TECH Software Omniscient Code Generator (Lite mode) build 49521"
   237  0006                     _PORTB	set	0x6
   238                           opt subtitle "HI-TECH Software Omniscient Code Generator (Lite mode) build 49521"
   239  0007                     _PORTC	set	0x7
   240                           opt subtitle "HI-TECH Software Omniscient Code Generator (Lite mode) build 49521"
   241  0008                     _PORTD	set	0x8
   242                           opt subtitle "HI-TECH Software Omniscient Code Generator (Lite mode) build 49521"
   243  0009                     _PORTE	set	0x9
   244                           opt subtitle "HI-TECH Software Omniscient Code Generator (Lite mode) build 49521"
   245  001A                     _RCREG	set	0x1A
   246                           opt subtitle "HI-TECH Software Omniscient Code Generator (Lite mode) build 49521"
   247  0012                     _T2CON	set	0x12
   248                           opt subtitle "HI-TECH Software Omniscient Code Generator (Lite mode) build 49521"
   249  0019                     _TXREG	set	0x19
   250                           opt subtitle "HI-TECH Software Omniscient Code Generator (Lite mode) build 49521"
   251  00C4                     _CREN	set	0xC4
   252                           opt subtitle "HI-TECH Software Omniscient Code Generator (Lite mode) build 49521"
   253  00C1                     _OERR	set	0xC1
   254                           opt subtitle "HI-TECH Software Omniscient Code Generator (Lite mode) build 49521"
   255  0030                     _RB0	set	0x30
   256                           opt subtitle "HI-TECH Software Omniscient Code Generator (Lite mode) build 49521"
   257  0031                     _RB1	set	0x31
   258                           opt subtitle "HI-TECH Software Omniscient Code Generator (Lite mode) build 49521"
   259  0032                     _RB2	set	0x32
   260                           opt subtitle "HI-TECH Software Omniscient Code Generator (Lite mode) build 49521"
   261  0033                     _RB3	set	0x33
   262                           opt subtitle "HI-TECH Software Omniscient Code Generator (Lite mode) build 49521"
   263  0034                     _RB4	set	0x34
   264                           opt subtitle "HI-TECH Software Omniscient Code Generator (Lite mode) build 49521"
   265  0035                     _RB5	set	0x35
   266                           opt subtitle "HI-TECH Software Omniscient Code Generator (Lite mode) build 49521"
   267  0037                     _RB7	set	0x37
   268                           opt subtitle "HI-TECH Software Omniscient Code Generator (Lite mode) build 49521"
   269  0065                     _RCIF	set	0x65
   270                           opt subtitle "HI-TECH Software Omniscient Code Generator (Lite mode) build 49521"
   271  00C6                     _RX9	set	0xC6
   272                           opt subtitle "HI-TECH Software Omniscient Code Generator (Lite mode) build 49521"
   273  00C7                     _SPEN	set	0xC7
   274                           opt subtitle "HI-TECH Software Omniscient Code Generator (Lite mode) build 49521"
   275  0064                     _TXIF	set	0x64
   276                           opt subtitle "HI-TECH Software Omniscient Code Generator (Lite mode) build 49521"
   277  0092                     _PR2	set	0x92
   278                           opt subtitle "HI-TECH Software Omniscient Code Generator (Lite mode) build 49521"
   279  0099                     _SPBRG	set	0x99
   280                           opt subtitle "HI-TECH Software Omniscient Code Generator (Lite mode) build 49521"
   281  0085                     _TRISA	set	0x85
   282                           opt subtitle "HI-TECH Software Omniscient Code Generator (Lite mode) build 49521"
   283  0086                     _TRISB	set	0x86
   284                           opt subtitle "HI-TECH Software Omniscient Code Generator (Lite mode) build 49521"
   285  0087                     _TRISC	set	0x87
   286                           opt subtitle "HI-TECH Software Omniscient Code Generator (Lite mode) build 49521"
   287  0088                     _TRISD	set	0x88
   288                           opt subtitle "HI-TECH Software Omniscient Code Generator (Lite mode) build 49521"
   289  0089                     _TRISE	set	0x89
   290                           opt subtitle "HI-TECH Software Omniscient Code Generator (Lite mode) build 49521"
   291  04C2                     _BRGH	set	0x4C2
   292                           opt subtitle "HI-TECH Software Omniscient Code Generator (Lite mode) build 49521"
   293  047C                     _IRCF0	set	0x47C
   294                           opt subtitle "HI-TECH Software Omniscient Code Generator (Lite mode) build 49521"
   295  047D                     _IRCF1	set	0x47D
   296                           opt subtitle "HI-TECH Software Omniscient Code Generator (Lite mode) build 49521"
   297  047E                     _IRCF2	set	0x47E
   298                           opt subtitle "HI-TECH Software Omniscient Code Generator (Lite mode) build 49521"
   299  04C6                     _TX9	set	0x4C6
   300                           opt subtitle "HI-TECH Software Omniscient Code Generator (Lite mode) build 49521"
   301  04C5                     _TXEN	set	0x4C5
   302                           opt subtitle "HI-TECH Software Omniscient Code Generator (Lite mode) build 49521"
   303  0188                     _ANSEL	set	0x188
   304                           opt subtitle "HI-TECH Software Omniscient Code Generator (Lite mode) build 49521"
   305  0189                     _ANSELH	set	0x189
   306                           opt subtitle "HI-TECH Software Omniscient Code Generator (Lite mode) build 49521"
   307                           
   308  0003                     __pstrings:
   309                           opt subtitle "HI-TECH Software Omniscient Code Generator (Lite mode) build 49521"
   310  0003                     stringtab:
   311                           opt subtitle "HI-TECH Software Omniscient Code Generator (Lite mode) build 49521"
   312  0003                     __stringtab:
   313                           opt subtitle "HI-TECH Software Omniscient Code Generator (Lite mode) build 49521"
   314  0003                     stringcode:stringdir:
      + 0003                     stringdir:	
   315  0003  3000               movlw high(stringdir)
   316  0004  008A               movwf pclath
   317  0005  0804               movf fsr,w
   318  0006  0A84               incf fsr
   319  0007  0782               	addwf pc
   320  0008                     __stringbase:
   321  0008  3400               	retlw	0
   322                           opt subtitle "HI-TECH Software Omniscient Code Generator (Lite mode) build 49521"
   323                           
   324  0009                     __end_of__stringtab:
   325                           opt subtitle "HI-TECH Software Omniscient Code Generator (Lite mode) build 49521"
   326  0009                     __stringdata:
   327                           opt subtitle "HI-TECH Software Omniscient Code Generator (Lite mode) build 49521"
   328  0009                     STR_12:	
   329  0009  3450               	retlw	80	;'P'
   330  000A  3472               	retlw	114	;'r'
   331  000B  3465               	retlw	101	;'e'
   332  000C  3473               	retlw	115	;'s'
   333  000D  3473               	retlw	115	;'s'
   334  000E  3420               	retlw	32	;' '
   335  000F  3461               	retlw	97	;'a'
   336  0010  346E               	retlw	110	;'n'
   337  0011  3479               	retlw	121	;'y'
   338  0012  3420               	retlw	32	;' '
   339  0013  3463               	retlw	99	;'c'
   340  0014  3468               	retlw	104	;'h'
   341  0015  3461               	retlw	97	;'a'
   342  0016  3472               	retlw	114	;'r'
   343  0017  3461               	retlw	97	;'a'
   344  0018  3463               	retlw	99	;'c'
   345  0019  3474               	retlw	116	;'t'
   346  001A  3465               	retlw	101	;'e'
   347  001B  3472               	retlw	114	;'r'
   348  001C  340D               	retlw	13
   349  001D  340A               	retlw	10
   350  001E  340A               	retlw	10
   351  001F  3400               	retlw	0
   352                           opt subtitle "HI-TECH Software Omniscient Code Generator (Lite mode) build 49521"
   353                           
   354  0020                     STR_1:	
   355  0020  3457               	retlw	87	;'W'
   356  0021  3469               	retlw	105	;'i'
   357  0022  3446               	retlw	70	;'F'
   358  0023  3469               	retlw	105	;'i'
   359  0024  3420               	retlw	32	;' '
   360  0025  344D               	retlw	77	;'M'
   361  0026  346F               	retlw	111	;'o'
   362  0027  3462               	retlw	98	;'b'
   363  0028  3469               	retlw	105	;'i'
   364  0029  346C               	retlw	108	;'l'
   365  002A  3465               	retlw	101	;'e'
   366  002B  3420               	retlw	32	;' '
   367  002C  3452               	retlw	82	;'R'
   368  002D  346F               	retlw	111	;'o'
   369  002E  3462               	retlw	98	;'b'
   370  002F  346F               	retlw	111	;'o'
   371  0030  3474               	retlw	116	;'t'
   372  0031  340D               	retlw	13
   373  0032  340A               	retlw	10
   374  0033  3400               	retlw	0
   375                           opt subtitle "HI-TECH Software Omniscient Code Generator (Lite mode) build 49521"
   376                           
   377  0034                     STR_4:	
   378  0034  3444               	retlw	68	;'D'
   379  0035  3420               	retlw	32	;' '
   380  0036  342D               	retlw	45	;'-'
   381  0037  3420               	retlw	32	;' '
   382  0038  3452               	retlw	82	;'R'
   383  0039  346F               	retlw	111	;'o'
   384  003A  3474               	retlw	116	;'t'
   385  003B  3461               	retlw	97	;'a'
   386  003C  3474               	retlw	116	;'t'
   387  003D  3465               	retlw	101	;'e'
   388  003E  3420               	retlw	32	;' '
   389  003F  3452               	retlw	82	;'R'
   390  0040  3469               	retlw	105	;'i'
   391  0041  3467               	retlw	103	;'g'
   392  0042  3468               	retlw	104	;'h'
   393  0043  3474               	retlw	116	;'t'
   394  0044  340D               	retlw	13
   395  0045  340A               	retlw	10
   396  0046  3400               	retlw	0
   397                           opt subtitle "HI-TECH Software Omniscient Code Generator (Lite mode) build 49521"
   398                           
   399  0047                     STR_3:	
   400  0047  3441               	retlw	65	;'A'
   401  0048  3420               	retlw	32	;' '
   402  0049  342D               	retlw	45	;'-'
   403  004A  3420               	retlw	32	;' '
   404  004B  3452               	retlw	82	;'R'
   405  004C  346F               	retlw	111	;'o'
   406  004D  3474               	retlw	116	;'t'
   407  004E  3461               	retlw	97	;'a'
   408  004F  3474               	retlw	116	;'t'
   409  0050  3465               	retlw	101	;'e'
   410  0051  3420               	retlw	32	;' '
   411  0052  344C               	retlw	76	;'L'
   412  0053  3465               	retlw	101	;'e'
   413  0054  3466               	retlw	102	;'f'
   414  0055  3474               	retlw	116	;'t'
   415  0056  340D               	retlw	13
   416  0057  340A               	retlw	10
   417  0058  3400               	retlw	0
   418                           opt subtitle "HI-TECH Software Omniscient Code Generator (Lite mode) build 49521"
   419                           
   420  0059                     STR_2:	
   421  0059  3457               	retlw	87	;'W'
   422  005A  3420               	retlw	32	;' '
   423  005B  342D               	retlw	45	;'-'
   424  005C  3420               	retlw	32	;' '
   425  005D  3446               	retlw	70	;'F'
   426  005E  346F               	retlw	111	;'o'
   427  005F  3472               	retlw	114	;'r'
   428  0060  3477               	retlw	119	;'w'
   429  0061  3461               	retlw	97	;'a'
   430  0062  3472               	retlw	114	;'r'
   431  0063  3464               	retlw	100	;'d'
   432  0064  340D               	retlw	13
   433  0065  340A               	retlw	10
   434  0066  3400               	retlw	0
   435                           opt subtitle "HI-TECH Software Omniscient Code Generator (Lite mode) build 49521"
   436                           
   437  0067                     STR_11:	
   438  0067  3420               	retlw	32	;' '
   439  0068  3458               	retlw	88	;'X'
   440  0069  3462               	retlw	98	;'b'
   441  006A  3465               	retlw	101	;'e'
   442  006B  3465               	retlw	101	;'e'
   443  006C  3420               	retlw	32	;' '
   444  006D  3457               	retlw	87	;'W'
   445  006E  3469               	retlw	105	;'i'
   446  006F  3446               	retlw	70	;'F'
   447  0070  3469               	retlw	105	;'i'
   448  0071  340D               	retlw	13
   449  0072  340A               	retlw	10
   450  0073  3400               	retlw	0
   451                           opt subtitle "HI-TECH Software Omniscient Code Generator (Lite mode) build 49521"
   452                           
   453  0074                     STR_5:	
   454  0074  3453               	retlw	83	;'S'
   455  0075  3420               	retlw	32	;' '
   456  0076  342D               	retlw	45	;'-'
   457  0077  3420               	retlw	32	;' '
   458  0078  3453               	retlw	83	;'S'
   459  0079  3474               	retlw	116	;'t'
   460  007A  346F               	retlw	111	;'o'
   461  007B  3470               	retlw	112	;'p'
   462  007C  340D               	retlw	13
   463  007D  340A               	retlw	10
   464  007E  340A               	retlw	10
   465  007F  3400               	retlw	0
   466                           opt subtitle "HI-TECH Software Omniscient Code Generator (Lite mode) build 49521"
   467                           
   468  0080                     STR_6:	
   469  0080  3452               	retlw	82	;'R'
   470  0081  3465               	retlw	101	;'e'
   471  0082  3461               	retlw	97	;'a'
   472  0083  3464               	retlw	100	;'d'
   473  0084  3479               	retlw	121	;'y'
   474  0085  3421               	retlw	33	;'!'
   475  0086  340D               	retlw	13
   476  0087  340A               	retlw	10
   477  0088  340A               	retlw	10
   478  0089  3400               	retlw	0
   479                           opt subtitle "HI-TECH Software Omniscient Code Generator (Lite mode) build 49521"
   480                           
   481  008A                     STR_10:	
   482  008A  3453               	retlw	83	;'S'
   483  008B  3474               	retlw	116	;'t'
   484  008C  346F               	retlw	111	;'o'
   485  008D  3470               	retlw	112	;'p'
   486  008E  340D               	retlw	13
   487  008F  340A               	retlw	10
   488  0090  3400               	retlw	0
   489                           opt subtitle "HI-TECH Software Omniscient Code Generator (Lite mode) build 49521"
   490  0038                     STR_9	equ	STR_4+4
   491  004B                     STR_8	equ	STR_3+4
   492  005D                     STR_7	equ	STR_2+4
   493                           opt subtitle "HI-TECH Software Omniscient Code Generator (Lite mode) build 49521"
   494  0091                     __end_of__stringdata:
   495                           opt subtitle "HI-TECH Software Omniscient Code Generator (Lite mode) build 49521"
   496                           
   497  0000                     __CFG_CPD$OFF equ 0x0
   498                           opt subtitle "HI-TECH Software Omniscient Code Generator (Lite mode) build 49521"
   499  0000                     __CFG_BOREN$OFF equ 0x0
   500                           opt subtitle "HI-TECH Software Omniscient Code Generator (Lite mode) build 49521"
   501  0000                     __CFG_IESO$OFF equ 0x0
   502                           opt subtitle "HI-TECH Software Omniscient Code Generator (Lite mode) build 49521"
   503  0000                     __CFG_FOSC$INTRC_NOCLKOUT equ 0x0
   504                           opt subtitle "HI-TECH Software Omniscient Code Generator (Lite mode) build 49521"
   505  0000                     __CFG_FCMEN$OFF equ 0x0
   506                           opt subtitle "HI-TECH Software Omniscient Code Generator (Lite mode) build 49521"
   507  0000                     __CFG_MCLRE$ON equ 0x0
   508                           opt subtitle "HI-TECH Software Omniscient Code Generator (Lite mode) build 49521"
   509  0000                     __CFG_WDTE$OFF equ 0x0
   510                           opt subtitle "HI-TECH Software Omniscient Code Generator (Lite mode) build 49521"
   511  0000                     __CFG_CP$OFF equ 0x0
   512                           opt subtitle "HI-TECH Software Omniscient Code Generator (Lite mode) build 49521"
   513  0000                     __CFG_LVP$OFF equ 0x0
   514                           opt subtitle "HI-TECH Software Omniscient Code Generator (Lite mode) build 49521"
   515  0000                     __CFG_PWRTE$ON equ 0x0
   516                           opt subtitle "HI-TECH Software Omniscient Code Generator (Lite mode) build 49521"
   517                           
   518                           opt pagewidth 120
   519                           
   520  0CA5                     start_initialization:
   521                           opt subtitle "HI-TECH Software Omniscient Code Generator (Lite mode) build 49521"
   522                           
   523  0CA5                     __initialization:
   524                           opt subtitle "HI-TECH Software Omniscient Code Generator (Lite mode) build 49521"
   525                           
   526                           opt pagewidth 120
   527                           
   528                           	opt lm
   529  0CA5                     end_of_initialization:
   530  0CA5                     __end_of__initialization:clrf status
      + 0CA5  0183               	clrf	3
   531  0CA6  120A  118A  2E3E   ljmp _main	;jump to C main() function
   532                           opt subtitle "HI-TECH Software Omniscient Code Generator (Lite mode) build 49521"
   533                           
   534  0070                     __pcstackCOMMON:
   535  0070                     ?_picInit:	; 0 bytes @ 0x0
   536  0070                     ??_picInit:	; 0 bytes @ 0x0
   537                           opt subtitle "HI-TECH Software Omniscient Code Generator (Lite mode) build 49521"
   538  0070                     ?_beep:	; 0 bytes @ 0x0
   539  0070                     ?_uartTransmit:	; 0 bytes @ 0x0
   540  0070                     ??_uartTransmit:	; 0 bytes @ 0x0
   541  0070                     ?_uartPutstr:	; 0 bytes @ 0x0
   542  0070                     ??_uartReceive:	; 0 bytes @ 0x0
   543  0070                     ?_main:	; 0 bytes @ 0x0
   544  0070                     ?_uartReceive:	; 1 bytes @ 0x0
   545                           opt subtitle "HI-TECH Software Omniscient Code Generator (Lite mode) build 49521"
   546  0070                     ?___bmul:	; 1 bytes @ 0x0
   547                           opt subtitle "HI-TECH Software Omniscient Code Generator (Lite mode) build 49521"
   548  0070                     ?___wmul:	; 2 bytes @ 0x0
   549                           opt subtitle "HI-TECH Software Omniscient Code Generator (Lite mode) build 49521"
   550  0070                     ?___lwdiv:	; 2 bytes @ 0x0
   551                           opt subtitle "HI-TECH Software Omniscient Code Generator (Lite mode) build 49521"
   552  0070                     ?___lwmod:	; 2 bytes @ 0x0
   553                           opt subtitle "HI-TECH Software Omniscient Code Generator (Lite mode) build 49521"
   554  0070                     ?___ftpack:	; 3 bytes @ 0x0
   555                           opt subtitle "HI-TECH Software Omniscient Code Generator (Lite mode) build 49521"
   556  0070                     ?___aldiv:	; 4 bytes @ 0x0
   557                           opt subtitle "HI-TECH Software Omniscient Code Generator (Lite mode) build 49521"
   558  0070                     uartTransmit@dataTx:	; 1 bytes @ 0x0
   559                           opt subtitle "HI-TECH Software Omniscient Code Generator (Lite mode) build 49521"
   560  0070                     ___bmul@multiplicand:	; 1 bytes @ 0x0
   561                           opt subtitle "HI-TECH Software Omniscient Code Generator (Lite mode) build 49521"
   562  0070                     beep@delayMs:	; 2 bytes @ 0x0
   563                           opt subtitle "HI-TECH Software Omniscient Code Generator (Lite mode) build 49521"
   564  0070                     ___wmul@multiplier:	; 2 bytes @ 0x0
   565                           opt subtitle "HI-TECH Software Omniscient Code Generator (Lite mode) build 49521"
   566  0070                     ___lwdiv@divisor:	; 2 bytes @ 0x0
   567                           opt subtitle "HI-TECH Software Omniscient Code Generator (Lite mode) build 49521"
   568  0070                     ___lwmod@divisor:	; 2 bytes @ 0x0
   569                           opt subtitle "HI-TECH Software Omniscient Code Generator (Lite mode) build 49521"
   570  0070                     ___ftpack@arg:	; 3 bytes @ 0x0
   571                           opt subtitle "HI-TECH Software Omniscient Code Generator (Lite mode) build 49521"
   572  0070                     ___aldiv@divisor:	; 4 bytes @ 0x0
   573  0070                     	ds	1
   574  0071                     ??_uartPutstr:	; 0 bytes @ 0x1
   575  0071                     ??___bmul:	; 0 bytes @ 0x1
   576  0071                     	ds	1
   577  0072                     ??_beep:	; 0 bytes @ 0x2
   578                           opt subtitle "HI-TECH Software Omniscient Code Generator (Lite mode) build 49521"
   579  0072                     uartPutstr@s:	; 1 bytes @ 0x2
   580                           opt subtitle "HI-TECH Software Omniscient Code Generator (Lite mode) build 49521"
   581  0072                     ___bmul@product:	; 1 bytes @ 0x2
   582                           opt subtitle "HI-TECH Software Omniscient Code Generator (Lite mode) build 49521"
   583  0072                     ___wmul@multiplicand:	; 2 bytes @ 0x2
   584                           opt subtitle "HI-TECH Software Omniscient Code Generator (Lite mode) build 49521"
   585  0072                     ___lwdiv@dividend:	; 2 bytes @ 0x2
   586                           opt subtitle "HI-TECH Software Omniscient Code Generator (Lite mode) build 49521"
   587  0072                     ___lwmod@dividend:	; 2 bytes @ 0x2
   588  0072                     	ds	1
   589                           opt subtitle "HI-TECH Software Omniscient Code Generator (Lite mode) build 49521"
   590  0073                     ___bmul@multiplier:	; 1 bytes @ 0x3
   591                           opt subtitle "HI-TECH Software Omniscient Code Generator (Lite mode) build 49521"
   592  0073                     ___ftpack@exp:	; 1 bytes @ 0x3
   593  0073                     	ds	1
   594  0074                     ??___wmul:	; 0 bytes @ 0x4
   595  0074                     ??___lwdiv:	; 0 bytes @ 0x4
   596  0074                     ??___lwmod:	; 0 bytes @ 0x4
   597                           opt subtitle "HI-TECH Software Omniscient Code Generator (Lite mode) build 49521"
   598  0074                     beep@times:	; 1 bytes @ 0x4
   599                           opt subtitle "HI-TECH Software Omniscient Code Generator (Lite mode) build 49521"
   600  0074                     ___ftpack@sign:	; 1 bytes @ 0x4
   601                           opt subtitle "HI-TECH Software Omniscient Code Generator (Lite mode) build 49521"
   602  0074                     ___wmul@product:	; 2 bytes @ 0x4
   603                           opt subtitle "HI-TECH Software Omniscient Code Generator (Lite mode) build 49521"
   604  0074                     ___aldiv@dividend:	; 4 bytes @ 0x4
   605  0074                     	ds	1
   606  0075                     ??___ftpack:	; 0 bytes @ 0x5
   607                           opt subtitle "HI-TECH Software Omniscient Code Generator (Lite mode) build 49521"
   608  0075                     ___lwmod@counter:	; 1 bytes @ 0x5
   609                           opt subtitle "HI-TECH Software Omniscient Code Generator (Lite mode) build 49521"
   610  0075                     beep@loop:	; 2 bytes @ 0x5
   611                           opt subtitle "HI-TECH Software Omniscient Code Generator (Lite mode) build 49521"
   612  0075                     ___lwdiv@quotient:	; 2 bytes @ 0x5
   613  0075                     	ds	1
   614                           opt subtitle "HI-TECH Software Omniscient Code Generator (Lite mode) build 49521"
   615  0076                     ?___awdiv:	; 2 bytes @ 0x6
   616                           opt subtitle "HI-TECH Software Omniscient Code Generator (Lite mode) build 49521"
   617  0076                     ___awdiv@divisor:	; 2 bytes @ 0x6
   618  0076                     	ds	1
   619                           opt subtitle "HI-TECH Software Omniscient Code Generator (Lite mode) build 49521"
   620  0077                     ___lwdiv@counter:	; 1 bytes @ 0x7
   621  0077                     	ds	1
   622                           opt subtitle "HI-TECH Software Omniscient Code Generator (Lite mode) build 49521"
   623  0078                     ?_uartNumber:	; 0 bytes @ 0x8
   624  0078                     ??___aldiv:	; 0 bytes @ 0x8
   625                           opt subtitle "HI-TECH Software Omniscient Code Generator (Lite mode) build 49521"
   626  0078                     ?___fttol:	; 4 bytes @ 0x8
   627                           opt subtitle "HI-TECH Software Omniscient Code Generator (Lite mode) build 49521"
   628  0078                     uartNumber@no:	; 2 bytes @ 0x8
   629                           opt subtitle "HI-TECH Software Omniscient Code Generator (Lite mode) build 49521"
   630  0078                     ___awdiv@dividend:	; 2 bytes @ 0x8
   631                           opt subtitle "HI-TECH Software Omniscient Code Generator (Lite mode) build 49521"
   632  0078                     ___fttol@f1:	; 3 bytes @ 0x8
   633  0078                     	ds	2
   634  007A                     ??___awdiv:	; 0 bytes @ 0xA
   635                           opt subtitle "HI-TECH Software Omniscient Code Generator (Lite mode) build 49521"
   636  007A                     uartNumber@base:	; 1 bytes @ 0xA
   637  007A                     	ds	1
   638  007B                     ??_setPwmRC1:	; 0 bytes @ 0xB
   639  007B                     ??_setPwmRC2:	; 0 bytes @ 0xB
   640                           opt subtitle "HI-TECH Software Omniscient Code Generator (Lite mode) build 49521"
   641  007B                     uartNumber@digit:	; 1 bytes @ 0xB
   642  007B                     	ds	1
   643  007C                     ??___lltoft:	; 0 bytes @ 0xC
   644                           opt subtitle "HI-TECH Software Omniscient Code Generator (Lite mode) build 49521"
   645  007C                     setPwmRC1@a:	; 2 bytes @ 0xC
   646                           opt subtitle "HI-TECH Software Omniscient Code Generator (Lite mode) build 49521"
   647  007C                     setPwmRC2@a:	; 2 bytes @ 0xC
   648  007C                     	ds	1
   649                           opt subtitle "HI-TECH Software Omniscient Code Generator (Lite mode) build 49521"
   650  007D                     ___lltoft@exp:	; 1 bytes @ 0xD
   651  007D                     	ds	1
   652  007E                     ??_uartInit:	; 0 bytes @ 0xE
   653                           opt subtitle "HI-TECH Software Omniscient Code Generator (Lite mode) build 49521"
   654                           
   655  0020                     __pcstackBANK0:
   656  0020                     ??_uartNumber:	; 0 bytes @ 0x0
   657  0020                     ??___fttol:	; 0 bytes @ 0x0
   658                           opt subtitle "HI-TECH Software Omniscient Code Generator (Lite mode) build 49521"
   659  0020                     ___awdiv@counter:	; 1 bytes @ 0x0
   660                           opt subtitle "HI-TECH Software Omniscient Code Generator (Lite mode) build 49521"
   661  0020                     ___aldiv@counter:	; 1 bytes @ 0x0
   662  0020                     	ds	1
   663                           opt subtitle "HI-TECH Software Omniscient Code Generator (Lite mode) build 49521"
   664  0021                     ___awdiv@sign:	; 1 bytes @ 0x1
   665                           opt subtitle "HI-TECH Software Omniscient Code Generator (Lite mode) build 49521"
   666  0021                     ___aldiv@sign:	; 1 bytes @ 0x1
   667  0021                     	ds	1
   668                           opt subtitle "HI-TECH Software Omniscient Code Generator (Lite mode) build 49521"
   669  0022                     ___awdiv@quotient:	; 2 bytes @ 0x2
   670                           opt subtitle "HI-TECH Software Omniscient Code Generator (Lite mode) build 49521"
   671  0022                     ___aldiv@quotient:	; 4 bytes @ 0x2
   672  0022                     	ds	1
   673                           opt subtitle "HI-TECH Software Omniscient Code Generator (Lite mode) build 49521"
   674  0023                     uartNumber@di:	; 10 bytes @ 0x3
   675  0023                     	ds	1
   676                           opt subtitle "HI-TECH Software Omniscient Code Generator (Lite mode) build 49521"
   677  0024                     ___fttol@sign1:	; 1 bytes @ 0x4
   678  0024                     	ds	1
   679                           opt subtitle "HI-TECH Software Omniscient Code Generator (Lite mode) build 49521"
   680  0025                     ___fttol@lval:	; 4 bytes @ 0x5
   681  0025                     	ds	1
   682                           opt subtitle "HI-TECH Software Omniscient Code Generator (Lite mode) build 49521"
   683  0026                     ?_setPwmRC1:	; 0 bytes @ 0x6
   684                           opt subtitle "HI-TECH Software Omniscient Code Generator (Lite mode) build 49521"
   685  0026                     ?_setPwmRC2:	; 0 bytes @ 0x6
   686                           opt subtitle "HI-TECH Software Omniscient Code Generator (Lite mode) build 49521"
   687  0026                     setPwmRC1@freq:	; 2 bytes @ 0x6
   688                           opt subtitle "HI-TECH Software Omniscient Code Generator (Lite mode) build 49521"
   689  0026                     setPwmRC2@freq:	; 2 bytes @ 0x6
   690  0026                     	ds	2
   691                           opt subtitle "HI-TECH Software Omniscient Code Generator (Lite mode) build 49521"
   692  0028                     setPwmRC1@duty:	; 2 bytes @ 0x8
   693                           opt subtitle "HI-TECH Software Omniscient Code Generator (Lite mode) build 49521"
   694  0028                     setPwmRC2@duty:	; 2 bytes @ 0x8
   695  0028                     	ds	1
   696                           opt subtitle "HI-TECH Software Omniscient Code Generator (Lite mode) build 49521"
   697  0029                     ___fttol@exp1:	; 1 bytes @ 0x9
   698  0029                     	ds	1
   699                           opt subtitle "HI-TECH Software Omniscient Code Generator (Lite mode) build 49521"
   700  002A                     ?_motor:	; 0 bytes @ 0xA
   701                           opt subtitle "HI-TECH Software Omniscient Code Generator (Lite mode) build 49521"
   702  002A                     ?___lltoft:	; 3 bytes @ 0xA
   703                           opt subtitle "HI-TECH Software Omniscient Code Generator (Lite mode) build 49521"
   704  002A                     motor@speedRM:	; 1 bytes @ 0xA
   705                           opt subtitle "HI-TECH Software Omniscient Code Generator (Lite mode) build 49521"
   706  002A                     ___lltoft@c:	; 4 bytes @ 0xA
   707  002A                     	ds	1
   708  002B                     ??_motor:	; 0 bytes @ 0xB
   709  002B                     	ds	2
   710                           opt subtitle "HI-TECH Software Omniscient Code Generator (Lite mode) build 49521"
   711  002D                     uartNumber@i:	; 1 bytes @ 0xD
   712                           opt subtitle "HI-TECH Software Omniscient Code Generator (Lite mode) build 49521"
   713  002D                     motor@maxSpeed:	; 1 bytes @ 0xD
   714  002D                     	ds	1
   715                           opt subtitle "HI-TECH Software Omniscient Code Generator (Lite mode) build 49521"
   716  002E                     ?___ftdiv:	; 3 bytes @ 0xE
   717                           opt subtitle "HI-TECH Software Omniscient Code Generator (Lite mode) build 49521"
   718  002E                     uartNumber@j:	; 1 bytes @ 0xE
   719                           opt subtitle "HI-TECH Software Omniscient Code Generator (Lite mode) build 49521"
   720  002E                     motor@speedLM:	; 1 bytes @ 0xE
   721                           opt subtitle "HI-TECH Software Omniscient Code Generator (Lite mode) build 49521"
   722  002E                     ___ftdiv@f2:	; 3 bytes @ 0xE
   723  002E                     	ds	1
   724                           opt subtitle "HI-TECH Software Omniscient Code Generator (Lite mode) build 49521"
   725  002F                     motor@speed:	; 1 bytes @ 0xF
   726  002F                     	ds	2
   727                           opt subtitle "HI-TECH Software Omniscient Code Generator (Lite mode) build 49521"
   728  0031                     ___ftdiv@f1:	; 3 bytes @ 0x11
   729  0031                     	ds	3
   730  0034                     ??___ftdiv:	; 0 bytes @ 0x14
   731  0034                     	ds	4
   732                           opt subtitle "HI-TECH Software Omniscient Code Generator (Lite mode) build 49521"
   733  0038                     ___ftdiv@cntr:	; 1 bytes @ 0x18
   734  0038                     	ds	1
   735                           opt subtitle "HI-TECH Software Omniscient Code Generator (Lite mode) build 49521"
   736  0039                     ___ftdiv@f3:	; 3 bytes @ 0x19
   737  0039                     	ds	3
   738                           opt subtitle "HI-TECH Software Omniscient Code Generator (Lite mode) build 49521"
   739  003C                     ___ftdiv@exp:	; 1 bytes @ 0x1C
   740  003C                     	ds	1
   741                           opt subtitle "HI-TECH Software Omniscient Code Generator (Lite mode) build 49521"
   742  003D                     ___ftdiv@sign:	; 1 bytes @ 0x1D
   743  003D                     	ds	1
   744                           opt subtitle "HI-TECH Software Omniscient Code Generator (Lite mode) build 49521"
   745  003E                     ?___ftadd:	; 3 bytes @ 0x1E
   746                           opt subtitle "HI-TECH Software Omniscient Code Generator (Lite mode) build 49521"
   747  003E                     ___ftadd@f1:	; 3 bytes @ 0x1E
   748  003E                     	ds	3
   749                           opt subtitle "HI-TECH Software Omniscient Code Generator (Lite mode) build 49521"
   750  0041                     ___ftadd@f2:	; 3 bytes @ 0x21
   751  0041                     	ds	3
   752  0044                     ??___ftadd:	; 0 bytes @ 0x24
   753  0044                     	ds	4
   754                           opt subtitle "HI-TECH Software Omniscient Code Generator (Lite mode) build 49521"
   755  0048                     ___ftadd@sign:	; 1 bytes @ 0x28
   756  0048                     	ds	1
   757                           opt subtitle "HI-TECH Software Omniscient Code Generator (Lite mode) build 49521"
   758  0049                     ___ftadd@exp2:	; 1 bytes @ 0x29
   759  0049                     	ds	1
   760                           opt subtitle "HI-TECH Software Omniscient Code Generator (Lite mode) build 49521"
   761  004A                     ___ftadd@exp1:	; 1 bytes @ 0x2A
   762  004A                     	ds	1
   763                           opt subtitle "HI-TECH Software Omniscient Code Generator (Lite mode) build 49521"
   764  004B                     ?_uartInit:	; 0 bytes @ 0x2B
   765                           opt subtitle "HI-TECH Software Omniscient Code Generator (Lite mode) build 49521"
   766  004B                     uartInit@baudrate:	; 4 bytes @ 0x2B
   767  004B                     	ds	4
   768                           opt subtitle "HI-TECH Software Omniscient Code Generator (Lite mode) build 49521"
   769  004F                     _uartInit$550:	; 3 bytes @ 0x2F
   770  004F                     	ds	3
   771  0052                     ??_main:	; 0 bytes @ 0x32
   772  0052                     	ds	4
   773                           opt subtitle "HI-TECH Software Omniscient Code Generator (Lite mode) build 49521"
   774  0056                     main@sw2press:	; 1 bytes @ 0x36
   775  0056                     	ds	1
   776                           opt subtitle "HI-TECH Software Omniscient Code Generator (Lite mode) build 49521"
   777  0057                     main@dataRx:	; 1 bytes @ 0x37
   778  0057                     	ds	1
   779                           opt subtitle "HI-TECH Software Omniscient Code Generator (Lite mode) build 49521"
   780                           
   781                           opt pagewidth 120
   782                           
   783                           	opt lm
   784                           
   785                           	processor	16F887
   786                           clrc	macro
   787                           	bcf	3,0
   788                           	endm
   789                           clrz	macro
   790                           	bcf	3,2
   791                           	endm
   792                           setc	macro
   793                           	bsf	3,0
   794                           	endm
   795                           setz	macro
   796                           	bsf	3,2
   797                           	endm
   798                           skipc	macro
   799                           	btfss	3,0
   800                           	endm
   801                           skipz	macro
   802                           	btfss	3,2
   803                           	endm
   804                           skipnc	macro
   805                           	btfsc	3,0
   806                           	endm
   807                           skipnz	macro
   808                           	btfsc	3,2
   809                           	endm
   810                           indf	equ	0
   811                           indf0	equ	0
   812                           pc	equ	2
   813                           pcl	equ	2
   814                           status	equ	3
   815                           fsr	equ	4
   816                           fsr0	equ	4
   817                           c	equ	1
   818                           z	equ	0
   819                           pclath	equ	10
   820                           # 46 "D:\Program Files\Microchip\xc8\v1.12\include\pic16f887.h"
   821                           INDF equ 00h ;# 
   822                           # 52 "D:\Program Files\Microchip\xc8\v1.12\include\pic16f887.h"
   823                           TMR0 equ 01h ;# 
   824                           # 58 "D:\Program Files\Microchip\xc8\v1.12\include\pic16f887.h"
   825                           PCL equ 02h ;# 
   826                           # 64 "D:\Program Files\Microchip\xc8\v1.12\include\pic16f887.h"
   827                           STATUS equ 03h ;# 
   828                           # 151 "D:\Program Files\Microchip\xc8\v1.12\include\pic16f887.h"
   829                           FSR equ 04h ;# 
   830                           # 157 "D:\Program Files\Microchip\xc8\v1.12\include\pic16f887.h"
   831                           PORTA equ 05h ;# 
   832                           # 218 "D:\Program Files\Microchip\xc8\v1.12\include\pic16f887.h"
   833                           PORTB equ 06h ;# 
   834                           # 279 "D:\Program Files\Microchip\xc8\v1.12\include\pic16f887.h"
   835                           PORTC equ 07h ;# 
   836                           # 340 "D:\Program Files\Microchip\xc8\v1.12\include\pic16f887.h"
   837                           PORTD equ 08h ;# 
   838                           # 401 "D:\Program Files\Microchip\xc8\v1.12\include\pic16f887.h"
   839                           PORTE equ 09h ;# 
   840                           # 438 "D:\Program Files\Microchip\xc8\v1.12\include\pic16f887.h"
   841                           PCLATH equ 0Ah ;# 
   842                           # 444 "D:\Program Files\Microchip\xc8\v1.12\include\pic16f887.h"
   843                           INTCON equ 0Bh ;# 
   844                           # 521 "D:\Program Files\Microchip\xc8\v1.12\include\pic16f887.h"
   845                           PIR1 equ 0Ch ;# 
   846                           # 576 "D:\Program Files\Microchip\xc8\v1.12\include\pic16f887.h"
   847                           PIR2 equ 0Dh ;# 
   848                           # 632 "D:\Program Files\Microchip\xc8\v1.12\include\pic16f887.h"
   849                           TMR1 equ 0Eh ;# 
   850                           # 638 "D:\Program Files\Microchip\xc8\v1.12\include\pic16f887.h"
   851                           TMR1L equ 0Eh ;# 
   852                           # 644 "D:\Program Files\Microchip\xc8\v1.12\include\pic16f887.h"
   853                           TMR1H equ 0Fh ;# 
   854                           # 650 "D:\Program Files\Microchip\xc8\v1.12\include\pic16f887.h"
   855                           T1CON equ 010h ;# 
   856                           # 743 "D:\Program Files\Microchip\xc8\v1.12\include\pic16f887.h"
   857                           TMR2 equ 011h ;# 
   858                           # 749 "D:\Program Files\Microchip\xc8\v1.12\include\pic16f887.h"
   859                           T2CON equ 012h ;# 
   860                           # 819 "D:\Program Files\Microchip\xc8\v1.12\include\pic16f887.h"
   861                           SSPBUF equ 013h ;# 
   862                           # 825 "D:\Program Files\Microchip\xc8\v1.12\include\pic16f887.h"
   863                           SSPCON equ 014h ;# 
   864                           # 894 "D:\Program Files\Microchip\xc8\v1.12\include\pic16f887.h"
   865                           CCPR1 equ 015h ;# 
   866                           # 900 "D:\Program Files\Microchip\xc8\v1.12\include\pic16f887.h"
   867                           CCPR1L equ 015h ;# 
   868                           # 906 "D:\Program Files\Microchip\xc8\v1.12\include\pic16f887.h"
   869                           CCPR1H equ 016h ;# 
   870                           # 912 "D:\Program Files\Microchip\xc8\v1.12\include\pic16f887.h"
   871                           CCP1CON equ 017h ;# 
   872                           # 1008 "D:\Program Files\Microchip\xc8\v1.12\include\pic16f887.h"
   873                           RCSTA equ 018h ;# 
   874                           # 1102 "D:\Program Files\Microchip\xc8\v1.12\include\pic16f887.h"
   875                           TXREG equ 019h ;# 
   876                           # 1108 "D:\Program Files\Microchip\xc8\v1.12\include\pic16f887.h"
   877                           RCREG equ 01Ah ;# 
   878                           # 1114 "D:\Program Files\Microchip\xc8\v1.12\include\pic16f887.h"
   879                           CCPR2 equ 01Bh ;# 
   880                           # 1120 "D:\Program Files\Microchip\xc8\v1.12\include\pic16f887.h"
   881                           CCPR2L equ 01Bh ;# 
   882                           # 1126 "D:\Program Files\Microchip\xc8\v1.12\include\pic16f887.h"
   883                           CCPR2H equ 01Ch ;# 
   884                           # 1132 "D:\Program Files\Microchip\xc8\v1.12\include\pic16f887.h"
   885                           CCP2CON equ 01Dh ;# 
   886                           # 1201 "D:\Program Files\Microchip\xc8\v1.12\include\pic16f887.h"
   887                           ADRESH equ 01Eh ;# 
   888                           # 1207 "D:\Program Files\Microchip\xc8\v1.12\include\pic16f887.h"
   889                           ADCON0 equ 01Fh ;# 
   890                           # 1307 "D:\Program Files\Microchip\xc8\v1.12\include\pic16f887.h"
   891                           OPTION_REG equ 081h ;# 
   892                           # 1376 "D:\Program Files\Microchip\xc8\v1.12\include\pic16f887.h"
   893                           TRISA equ 085h ;# 
   894                           # 1437 "D:\Program Files\Microchip\xc8\v1.12\include\pic16f887.h"
   895                           TRISB equ 086h ;# 
   896                           # 1498 "D:\Program Files\Microchip\xc8\v1.12\include\pic16f887.h"
   897                           TRISC equ 087h ;# 
   898                           # 1559 "D:\Program Files\Microchip\xc8\v1.12\include\pic16f887.h"
   899                           TRISD equ 088h ;# 
   900                           # 1620 "D:\Program Files\Microchip\xc8\v1.12\include\pic16f887.h"
   901                           TRISE equ 089h ;# 
   902                           # 1657 "D:\Program Files\Microchip\xc8\v1.12\include\pic16f887.h"
   903                           PIE1 equ 08Ch ;# 
   904                           # 1712 "D:\Program Files\Microchip\xc8\v1.12\include\pic16f887.h"
   905                           PIE2 equ 08Dh ;# 
   906                           # 1768 "D:\Program Files\Microchip\xc8\v1.12\include\pic16f887.h"
   907                           PCON equ 08Eh ;# 
   908                           # 1814 "D:\Program Files\Microchip\xc8\v1.12\include\pic16f887.h"
   909                           OSCCON equ 08Fh ;# 
   910                           # 1878 "D:\Program Files\Microchip\xc8\v1.12\include\pic16f887.h"
   911                           OSCTUNE equ 090h ;# 
   912                           # 1929 "D:\Program Files\Microchip\xc8\v1.12\include\pic16f887.h"
   913                           SSPCON2 equ 091h ;# 
   914                           # 1990 "D:\Program Files\Microchip\xc8\v1.12\include\pic16f887.h"
   915                           PR2 equ 092h ;# 
   916                           # 1996 "D:\Program Files\Microchip\xc8\v1.12\include\pic16f887.h"
   917                           SSPADD equ 093h ;# 
   918                           # 2002 "D:\Program Files\Microchip\xc8\v1.12\include\pic16f887.h"
   919                           SSPMSK equ 093h ;# 
   920                           # 2007 "D:\Program Files\Microchip\xc8\v1.12\include\pic16f887.h"
   921                           MSK equ 093h ;# 
   922                           # 2123 "D:\Program Files\Microchip\xc8\v1.12\include\pic16f887.h"
   923                           SSPSTAT equ 094h ;# 
   924                           # 2291 "D:\Program Files\Microchip\xc8\v1.12\include\pic16f887.h"
   925                           WPUB equ 095h ;# 
   926                           # 2360 "D:\Program Files\Microchip\xc8\v1.12\include\pic16f887.h"
   927                           IOCB equ 096h ;# 
   928                           # 2429 "D:\Program Files\Microchip\xc8\v1.12\include\pic16f887.h"
   929                           VRCON equ 097h ;# 
   930                           # 2498 "D:\Program Files\Microchip\xc8\v1.12\include\pic16f887.h"
   931                           TXSTA equ 098h ;# 
   932                           # 2583 "D:\Program Files\Microchip\xc8\v1.12\include\pic16f887.h"
   933                           SPBRG equ 099h ;# 
   934                           # 2644 "D:\Program Files\Microchip\xc8\v1.12\include\pic16f887.h"
   935                           SPBRGH equ 09Ah ;# 
   936                           # 2713 "D:\Program Files\Microchip\xc8\v1.12\include\pic16f887.h"
   937                           PWM1CON equ 09Bh ;# 
   938                           # 2782 "D:\Program Files\Microchip\xc8\v1.12\include\pic16f887.h"
   939                           ECCPAS equ 09Ch ;# 
   940                           # 2863 "D:\Program Files\Microchip\xc8\v1.12\include\pic16f887.h"
   941                           PSTRCON equ 09Dh ;# 
   942                           # 2906 "D:\Program Files\Microchip\xc8\v1.12\include\pic16f887.h"
   943                           ADRESL equ 09Eh ;# 
   944                           # 2912 "D:\Program Files\Microchip\xc8\v1.12\include\pic16f887.h"
   945                           ADCON1 equ 09Fh ;# 
   946                           # 2945 "D:\Program Files\Microchip\xc8\v1.12\include\pic16f887.h"
   947                           WDTCON equ 0105h ;# 
   948                           # 2997 "D:\Program Files\Microchip\xc8\v1.12\include\pic16f887.h"
   949                           CM1CON0 equ 0107h ;# 
   950                           # 3061 "D:\Program Files\Microchip\xc8\v1.12\include\pic16f887.h"
   951                           CM2CON0 equ 0108h ;# 
   952                           # 3125 "D:\Program Files\Microchip\xc8\v1.12\include\pic16f887.h"
   953                           CM2CON1 equ 0109h ;# 
   954                           # 3175 "D:\Program Files\Microchip\xc8\v1.12\include\pic16f887.h"
   955                           EEDATA equ 010Ch ;# 
   956                           # 3180 "D:\Program Files\Microchip\xc8\v1.12\include\pic16f887.h"
   957                           EEDAT equ 010Ch ;# 
   958                           # 3186 "D:\Program Files\Microchip\xc8\v1.12\include\pic16f887.h"
   959                           EEADR equ 010Dh ;# 
   960                           # 3192 "D:\Program Files\Microchip\xc8\v1.12\include\pic16f887.h"
   961                           EEDATH equ 010Eh ;# 
   962                           # 3198 "D:\Program Files\Microchip\xc8\v1.12\include\pic16f887.h"
   963                           EEADRH equ 010Fh ;# 
   964                           # 3204 "D:\Program Files\Microchip\xc8\v1.12\include\pic16f887.h"
   965                           SRCON equ 0185h ;# 
   966                           # 3260 "D:\Program Files\Microchip\xc8\v1.12\include\pic16f887.h"
   967                           BAUDCTL equ 0187h ;# 
   968                           # 3311 "D:\Program Files\Microchip\xc8\v1.12\include\pic16f887.h"
   969                           ANSEL equ 0188h ;# 
   970                           # 3372 "D:\Program Files\Microchip\xc8\v1.12\include\pic16f887.h"
   971                           ANSELH equ 0189h ;# 
   972                           # 3421 "D:\Program Files\Microchip\xc8\v1.12\include\pic16f887.h"
   973                           EECON1 equ 018Ch ;# 
   974                           # 3465 "D:\Program Files\Microchip\xc8\v1.12\include\pic16f887.h"
   975                           EECON2 equ 018Dh ;# 
   976                           	FNCALL	_main,_picInit
   977                           	FNCALL	_main,_uartInit
   978                           	FNCALL	_main,_beep
   979                           	FNCALL	_main,_uartPutstr
   980                           	FNCALL	_main,_motor
   981                           	FNCALL	_main,_uartReceive
   982                           	FNCALL	_main,_uartNumber
   983                           	FNCALL	_uartInit,___lltoft
   984                           	FNCALL	_uartInit,___ftdiv
   985                           	FNCALL	_uartInit,___ftadd
   986                           	FNCALL	_uartInit,___fttol
   987                           	FNCALL	_uartPutstr,_uartTransmit
   988                           	FNCALL	_uartNumber,___lwmod
   989                           	FNCALL	_uartNumber,___lwdiv
   990                           	FNCALL	_uartNumber,_uartTransmit
   991                           	FNCALL	_motor,___bmul
   992                           	FNCALL	_motor,_setPwmRC1
   993                           	FNCALL	_motor,_setPwmRC2
   994                           	FNCALL	_setPwmRC1,___aldiv
   995                           	FNCALL	_setPwmRC1,___wmul
   996                           	FNCALL	_setPwmRC1,___awdiv
   997                           	FNCALL	_setPwmRC2,___aldiv
   998                           	FNCALL	_setPwmRC2,___wmul
   999                           	FNCALL	_setPwmRC2,___awdiv
  1000                           	FNCALL	___ftadd,___ftpack
  1001                           	FNCALL	___ftdiv,___ftpack
  1002                           	FNCALL	___lltoft,___ftpack
  1003                           	FNROOT	_main
  1004                           	global	_CCP1CON
  1005                           _CCP1CON	set	0x17
  1006                           	global	_CCP2CON
  1007                           _CCP2CON	set	0x1D
  1008                           	global	_CCPR1L
  1009                           _CCPR1L	set	0x15
  1010                           	global	_CCPR2L
  1011                           _CCPR2L	set	0x1B
  1012                           	global	_PORTA
  1013                           _PORTA	set	0x5
  1014                           	global	_PORTB
  1015                           _PORTB	set	0x6
  1016                           	global	_PORTC
  1017                           _PORTC	set	0x7
  1018                           	global	_PORTD
  1019                           _PORTD	set	0x8
  1020                           	global	_PORTE
  1021                           _PORTE	set	0x9
  1022                           	global	_RCREG
  1023                           _RCREG	set	0x1A
  1024                           	global	_T2CON
  1025                           _T2CON	set	0x12
  1026                           	global	_TXREG
  1027                           _TXREG	set	0x19
  1028                           	global	_CREN
  1029                           _CREN	set	0xC4
  1030                           	global	_OERR
  1031                           _OERR	set	0xC1
  1032                           	global	_RB0
  1033                           _RB0	set	0x30
  1034                           	global	_RB1
  1035                           _RB1	set	0x31
  1036                           	global	_RB2
  1037                           _RB2	set	0x32
  1038                           	global	_RB3
  1039                           _RB3	set	0x33
  1040                           	global	_RB4
  1041                           _RB4	set	0x34
  1042                           	global	_RB5
  1043                           _RB5	set	0x35
  1044                           	global	_RB7
  1045                           _RB7	set	0x37
  1046                           	global	_RCIF
  1047                           _RCIF	set	0x65
  1048                           	global	_RX9
  1049                           _RX9	set	0xC6
  1050                           	global	_SPEN
  1051                           _SPEN	set	0xC7
  1052                           	global	_TXIF
  1053                           _TXIF	set	0x64
  1054                           	global	_PR2
  1055                           _PR2	set	0x92
  1056                           	global	_SPBRG
  1057                           _SPBRG	set	0x99
  1058                           	global	_TRISA
  1059                           _TRISA	set	0x85
  1060                           	global	_TRISB
  1061                           _TRISB	set	0x86
  1062                           	global	_TRISC
  1063                           _TRISC	set	0x87
  1064                           	global	_TRISD
  1065                           _TRISD	set	0x88
  1066                           	global	_TRISE
  1067                           _TRISE	set	0x89
  1068                           	global	_BRGH
  1069                           _BRGH	set	0x4C2
  1070                           	global	_IRCF0
  1071                           _IRCF0	set	0x47C
  1072                           	global	_IRCF1
  1073                           _IRCF1	set	0x47D
  1074                           	global	_IRCF2
  1075                           _IRCF2	set	0x47E
  1076                           	global	_TX9
  1077                           _TX9	set	0x4C6
  1078                           	global	_TXEN
  1079                           _TXEN	set	0x4C5
  1080                           	global	_ANSEL
  1081                           _ANSEL	set	0x188
  1082                           	global	_ANSELH
  1083                           _ANSELH	set	0x189
  1084                           psect	strings,class=STRING,delta=2
  1085                           global __pstrings
  1086                           __pstrings:
  1087                           ;	global	stringdir,stringtab,__stringbase
  1088                           stringtab:
  1089                           	global    __stringtab
  1090                           __stringtab:
  1091                           ;	String table - string pointers are 1 byte each
  1092                           stringcode:stringdir:
  1093                           movlw high(stringdir)
  1094                           movwf pclath
  1095                           movf fsr,w
  1096                           incf fsr
  1097                           	addwf pc
  1098                           __stringbase:
  1099                           	retlw	0
  1100                           psect	strings
  1101                           	global    __end_of__stringtab
  1102                           __end_of__stringtab:
  1103                           	global __stringdata
  1104                           __stringdata:
  1105                           	
  1106                           STR_12:	
  1107                           	retlw	80	;'P'
  1108                           	retlw	114	;'r'
  1109                           	retlw	101	;'e'
  1110                           	retlw	115	;'s'
  1111  063E                     __pmaintext:	;psect for function _main
  1112                           opt subtitle "HI-TECH Software Omniscient Code Generator (Lite mode) build 49521"
  1113                           
  1114                           opt pagewidth 120
  1115                           
  1116  01C2                     	__size_of_main	equ	__end_of_main-_main
  1117                           opt subtitle "HI-TECH Software Omniscient Code Generator (Lite mode) build 49521"
  1118  063E                     _main:	
  1119                           opt subtitle "HI-TECH Software Omniscient Code Generator (Lite mode) build 49521"
  1120                           
  1121                           opt pagewidth 120
  1122                           
  1123  063E                     l2149:	
  1124                           opt subtitle "HI-TECH Software Omniscient Code Generator (Lite mode) build 49521"
  1125  063E  1283               	bcf	status, 5	;RP0=0, select bank0
  1126  063F  1303               	bcf	status, 6	;RP1=0, select bank0
  1127  0640  01D6               	clrf	(main@sw2press)
  1128                           opt subtitle "HI-TECH Software Omniscient Code Generator (Lite mode) build 49521"
  1129                           
  1130  0641                     l2151:	
  1131                           opt subtitle "HI-TECH Software Omniscient Code Generator (Lite mode) build 49521"
  1132  0641  120A  158A  24DF   	fcall	_picInit
              120A  118A         
  1133                           opt subtitle "HI-TECH Software Omniscient Code Generator (Lite mode) build 49521"
  1134                           
  1135  0646  3000               	movlw	0
  1136  0647  1283               	bcf	status, 5	;RP0=0, select bank0
  1137  0648  1303               	bcf	status, 6	;RP1=0, select bank0
  1138  0649  00CE               	movwf	(?_uartInit+3)
  1139  064A  3000               	movlw	0
  1140  064B  00CD               	movwf	(?_uartInit+2)
  1141  064C  3025               	movlw	025h
  1142  064D  00CC               	movwf	(?_uartInit+1)
  1143  064E  3080               	movlw	080h
  1144  064F  00CB               	movwf	(?_uartInit)
  1145                           opt subtitle "HI-TECH Software Omniscient Code Generator (Lite mode) build 49521"
  1146  0650  120A  118A  2403   	fcall	_uartInit
              120A  118A         
  1147                           opt subtitle "HI-TECH Software Omniscient Code Generator (Lite mode) build 49521"
  1148                           
  1149  0655  3032               	movlw	low(032h)
  1150  0656  00F0               	movwf	(?_beep)
  1151  0657  3000               	movlw	high(032h)
  1152  0658  00F1               	movwf	((?_beep))+1
  1153  0659  3002               	movlw	(02h)
  1154  065A  120A  158A  25EB   	fcall	_beep
              120A  118A         
  1155  065F  2E60               	goto	l2153
  1156                           opt subtitle "HI-TECH Software Omniscient Code Generator (Lite mode) build 49521"
  1157                           
  1158                           opt pagewidth 120
  1159  0660                     l133:	
  1160                           opt subtitle "HI-TECH Software Omniscient Code Generator (Lite mode) build 49521"
  1161                           
  1162  0660                     l2153:	
  1163                           opt subtitle "HI-TECH Software Omniscient Code Generator (Lite mode) build 49521"
  1164                           
  1165  0660  1283               	bcf	status, 5	;RP0=0, select bank0
  1166  0661  1303               	bcf	status, 6	;RP1=0, select bank0
  1167  0662  1806               	btfsc	(48/8),(48)&7	;volatile
  1168  0663  2E65               	goto	u2511
  1169  0664  2E66               	goto	u2510
  1170  0665                     u2511:
  1171  0665  2FBB               	goto	l134
  1172  0666                     u2510:
  1173                           opt subtitle "HI-TECH Software Omniscient Code Generator (Lite mode) build 49521"
  1174                           
  1175  0666                     l2155:	
  1176                           opt subtitle "HI-TECH Software Omniscient Code Generator (Lite mode) build 49521"
  1177                           
  1178  0666  3032               	movlw	low(032h)
  1179  0667  00F0               	movwf	(?_beep)
  1180  0668  3000               	movlw	high(032h)
  1181  0669  00F1               	movwf	((?_beep))+1
  1182  066A  3001               	movlw	(01h)
  1183  066B  120A  158A  25EB   	fcall	_beep
              120A  118A         
  1184                           opt subtitle "HI-TECH Software Omniscient Code Generator (Lite mode) build 49521"
  1185                           
  1186  0670                     l2157:	
  1187                           opt subtitle "HI-TECH Software Omniscient Code Generator (Lite mode) build 49521"
  1188  0670  3018               	movlw	((STR_1-__stringbase))&0ffh
  1189  0671  120A  118A  2092   	fcall	_uartPutstr
              120A  118A         
  1190                           opt subtitle "HI-TECH Software Omniscient Code Generator (Lite mode) build 49521"
  1191                           
  1192  0676                     l2159:	
  1193                           opt subtitle "HI-TECH Software Omniscient Code Generator (Lite mode) build 49521"
  1194  0676  3051               	movlw	((STR_2-__stringbase))&0ffh
  1195  0677  120A  118A  2092   	fcall	_uartPutstr
              120A  118A         
  1196                           opt subtitle "HI-TECH Software Omniscient Code Generator (Lite mode) build 49521"
  1197                           
  1198  067C                     l2161:	
  1199                           opt subtitle "HI-TECH Software Omniscient Code Generator (Lite mode) build 49521"
  1200  067C  303F               	movlw	((STR_3-__stringbase))&0ffh
  1201  067D  120A  118A  2092   	fcall	_uartPutstr
              120A  118A         
  1202                           opt subtitle "HI-TECH Software Omniscient Code Generator (Lite mode) build 49521"
  1203                           
  1204  0682                     l2163:	
  1205                           opt subtitle "HI-TECH Software Omniscient Code Generator (Lite mode) build 49521"
  1206  0682  302C               	movlw	((STR_4-__stringbase))&0ffh
  1207  0683  120A  118A  2092   	fcall	_uartPutstr
              120A  118A         
  1208                           opt subtitle "HI-TECH Software Omniscient Code Generator (Lite mode) build 49521"
  1209                           
  1210  0688                     l2165:	
  1211                           opt subtitle "HI-TECH Software Omniscient Code Generator (Lite mode) build 49521"
  1212  0688  306C               	movlw	((STR_5-__stringbase))&0ffh
  1213  0689  120A  118A  2092   	fcall	_uartPutstr
              120A  118A         
  1214                           opt subtitle "HI-TECH Software Omniscient Code Generator (Lite mode) build 49521"
  1215                           
  1216  068E                     l2167:	
  1217                           opt subtitle "HI-TECH Software Omniscient Code Generator (Lite mode) build 49521"
  1218  068E  30CE               	movlw	(-50)
  1219  068F  1283               	bcf	status, 5	;RP0=0, select bank0
  1220  0690  1303               	bcf	status, 6	;RP1=0, select bank0
  1221  0691  00D2               	movwf	(??_main+0)+0
  1222  0692  0852               	movf	(??_main+0)+0,w
  1223  0693  00AA               	movwf	(?_motor)
  1224  0694  3032               	movlw	(032h)
  1225  0695  120A  118A  214E   	fcall	_motor
              120A  118A         
  1226                           opt subtitle "HI-TECH Software Omniscient Code Generator (Lite mode) build 49521"
  1227  069A                     l2169:	
  1228                           opt subtitle "HI-TECH Software Omniscient Code Generator (Lite mode) build 49521"
  1229  069A  3003               movlw  3
  1230  069B  1283               	bcf	status, 5	;RP0=0, select bank0
  1231  069C  1303               	bcf	status, 6	;RP1=0, select bank0
  1232  069D  00D4               movwf	((??_main+0)+0+2),f
  1233  069E  3008               movlw	8
  1234  069F  00D3               movwf	((??_main+0)+0+1),f
  1235  06A0  3078               	movlw	120
  1236  06A1  00D2               movwf	((??_main+0)+0),f
  1237  06A2                     u2617:
  1238  06A2  0BD2               	decfsz	((??_main+0)+0),f
  1239  06A3  2EA2               	goto	u2617
  1240  06A4  0BD3               	decfsz	((??_main+0)+0+1),f
  1241  06A5  2EA2               	goto	u2617
  1242  06A6  0BD4               	decfsz	((??_main+0)+0+2),f
  1243  06A7  2EA2               	goto	u2617
  1244                           opt subtitle "HI-TECH Software Omniscient Code Generator (Lite mode) build 49521"
  1245                           
  1246                           opt pagewidth 120
  1247  06A8                     l2171:	
  1248  06A8  1283               	bcf	status, 5	;RP0=0, select bank0
  1249  06A9  1303               	bcf	status, 6	;RP1=0, select bank0
  1250  06AA  01AA               	clrf	(?_motor)
  1251  06AB  3000               	movlw	(0)
  1252  06AC  120A  118A  214E   	fcall	_motor
              120A  118A         
  1253                           opt subtitle "HI-TECH Software Omniscient Code Generator (Lite mode) build 49521"
  1254  06B1                     l2173:	
  1255                           opt subtitle "HI-TECH Software Omniscient Code Generator (Lite mode) build 49521"
  1256  06B1  3003               movlw  3
  1257  06B2  1283               	bcf	status, 5	;RP0=0, select bank0
  1258  06B3  1303               	bcf	status, 6	;RP1=0, select bank0
  1259  06B4  00D4               movwf	((??_main+0)+0+2),f
  1260  06B5  3008               movlw	8
  1261  06B6  00D3               movwf	((??_main+0)+0+1),f
  1262  06B7  3078               	movlw	120
  1263  06B8  00D2               movwf	((??_main+0)+0),f
  1264  06B9                     u2627:
  1265  06B9  0BD2               	decfsz	((??_main+0)+0),f
  1266  06BA  2EB9               	goto	u2627
  1267  06BB  0BD3               	decfsz	((??_main+0)+0+1),f
  1268  06BC  2EB9               	goto	u2627
  1269  06BD  0BD4               	decfsz	((??_main+0)+0+2),f
  1270  06BE  2EB9               	goto	u2627
  1271                           opt subtitle "HI-TECH Software Omniscient Code Generator (Lite mode) build 49521"
  1272                           
  1273                           opt pagewidth 120
  1274                           
  1275  06BF                     l2175:	
  1276                           opt subtitle "HI-TECH Software Omniscient Code Generator (Lite mode) build 49521"
  1277  06BF  3032               	movlw	(032h)
  1278  06C0  1283               	bcf	status, 5	;RP0=0, select bank0
  1279  06C1  1303               	bcf	status, 6	;RP1=0, select bank0
  1280  06C2  00D2               	movwf	(??_main+0)+0
  1281  06C3  0852               	movf	(??_main+0)+0,w
  1282  06C4  00AA               	movwf	(?_motor)
  1283  06C5  30CE               	movlw	(-50)
  1284  06C6  120A  118A  214E   	fcall	_motor
              120A  118A         
  1285                           opt subtitle "HI-TECH Software Omniscient Code Generator (Lite mode) build 49521"
  1286  06CB                     l2177:	
  1287                           opt subtitle "HI-TECH Software Omniscient Code Generator (Lite mode) build 49521"
  1288  06CB  3005               movlw  5
  1289  06CC  1283               	bcf	status, 5	;RP0=0, select bank0
  1290  06CD  1303               	bcf	status, 6	;RP1=0, select bank0
  1291  06CE  00D4               movwf	((??_main+0)+0+2),f
  1292  06CF  300F               movlw	15
  1293  06D0  00D3               movwf	((??_main+0)+0+1),f
  1294  06D1  30F4               	movlw	244
  1295  06D2  00D2               movwf	((??_main+0)+0),f
  1296  06D3                     u2637:
  1297  06D3  0BD2               	decfsz	((??_main+0)+0),f
  1298  06D4  2ED3               	goto	u2637
  1299  06D5  0BD3               	decfsz	((??_main+0)+0+1),f
  1300  06D6  2ED3               	goto	u2637
  1301  06D7  0BD4               	decfsz	((??_main+0)+0+2),f
  1302  06D8  2ED3               	goto	u2637
  1303                           opt subtitle "HI-TECH Software Omniscient Code Generator (Lite mode) build 49521"
  1304                           
  1305                           opt pagewidth 120
  1306  06D9                     l2179:	
  1307  06D9  1283               	bcf	status, 5	;RP0=0, select bank0
  1308  06DA  1303               	bcf	status, 6	;RP1=0, select bank0
  1309  06DB  01AA               	clrf	(?_motor)
  1310  06DC  3000               	movlw	(0)
  1311  06DD  120A  118A  214E   	fcall	_motor
              120A  118A         
  1312                           opt subtitle "HI-TECH Software Omniscient Code Generator (Lite mode) build 49521"
  1313  06E2                     l2181:	
  1314                           opt subtitle "HI-TECH Software Omniscient Code Generator (Lite mode) build 49521"
  1315  06E2  3003               movlw  3
  1316  06E3  1283               	bcf	status, 5	;RP0=0, select bank0
  1317  06E4  1303               	bcf	status, 6	;RP1=0, select bank0
  1318  06E5  00D4               movwf	((??_main+0)+0+2),f
  1319  06E6  3008               movlw	8
  1320  06E7  00D3               movwf	((??_main+0)+0+1),f
  1321  06E8  3078               	movlw	120
  1322  06E9  00D2               movwf	((??_main+0)+0),f
  1323  06EA                     u2647:
  1324  06EA  0BD2               	decfsz	((??_main+0)+0),f
  1325  06EB  2EEA               	goto	u2647
  1326  06EC  0BD3               	decfsz	((??_main+0)+0+1),f
  1327  06ED  2EEA               	goto	u2647
  1328  06EE  0BD4               	decfsz	((??_main+0)+0+2),f
  1329  06EF  2EEA               	goto	u2647
  1330                           opt subtitle "HI-TECH Software Omniscient Code Generator (Lite mode) build 49521"
  1331                           
  1332                           opt pagewidth 120
  1333                           
  1334  06F0                     l2183:	
  1335                           opt subtitle "HI-TECH Software Omniscient Code Generator (Lite mode) build 49521"
  1336  06F0  30CE               	movlw	(-50)
  1337  06F1  1283               	bcf	status, 5	;RP0=0, select bank0
  1338  06F2  1303               	bcf	status, 6	;RP1=0, select bank0
  1339  06F3  00D2               	movwf	(??_main+0)+0
  1340  06F4  0852               	movf	(??_main+0)+0,w
  1341  06F5  00AA               	movwf	(?_motor)
  1342  06F6  3032               	movlw	(032h)
  1343  06F7  120A  118A  214E   	fcall	_motor
              120A  118A         
  1344                           opt subtitle "HI-TECH Software Omniscient Code Generator (Lite mode) build 49521"
  1345  06FC                     l2185:	
  1346                           opt subtitle "HI-TECH Software Omniscient Code Generator (Lite mode) build 49521"
  1347  06FC  3003               movlw  3
  1348  06FD  1283               	bcf	status, 5	;RP0=0, select bank0
  1349  06FE  1303               	bcf	status, 6	;RP1=0, select bank0
  1350  06FF  00D4               movwf	((??_main+0)+0+2),f
  1351  0700  3008               movlw	8
  1352  0701  00D3               movwf	((??_main+0)+0+1),f
  1353  0702  3078               	movlw	120
  1354  0703  00D2               movwf	((??_main+0)+0),f
  1355  0704                     u2657:
  1356  0704  0BD2               	decfsz	((??_main+0)+0),f
  1357  0705  2F04               	goto	u2657
  1358  0706  0BD3               	decfsz	((??_main+0)+0+1),f
  1359  0707  2F04               	goto	u2657
  1360  0708  0BD4               	decfsz	((??_main+0)+0+2),f
  1361  0709  2F04               	goto	u2657
  1362                           opt subtitle "HI-TECH Software Omniscient Code Generator (Lite mode) build 49521"
  1363                           
  1364                           opt pagewidth 120
  1365  070A                     l2187:	
  1366  070A  1283               	bcf	status, 5	;RP0=0, select bank0
  1367  070B  1303               	bcf	status, 6	;RP1=0, select bank0
  1368  070C  01AA               	clrf	(?_motor)
  1369  070D  3000               	movlw	(0)
  1370  070E  120A  118A  214E   	fcall	_motor
              120A  118A         
  1371                           opt subtitle "HI-TECH Software Omniscient Code Generator (Lite mode) build 49521"
  1372  0713                     l2189:	
  1373                           opt subtitle "HI-TECH Software Omniscient Code Generator (Lite mode) build 49521"
  1374  0713  3003               movlw  3
  1375  0714  1283               	bcf	status, 5	;RP0=0, select bank0
  1376  0715  1303               	bcf	status, 6	;RP1=0, select bank0
  1377  0716  00D4               movwf	((??_main+0)+0+2),f
  1378  0717  3008               movlw	8
  1379  0718  00D3               movwf	((??_main+0)+0+1),f
  1380  0719  3078               	movlw	120
  1381  071A  00D2               movwf	((??_main+0)+0),f
  1382  071B                     u2667:
  1383  071B  0BD2               	decfsz	((??_main+0)+0),f
  1384  071C  2F1B               	goto	u2667
  1385  071D  0BD3               	decfsz	((??_main+0)+0+1),f
  1386  071E  2F1B               	goto	u2667
  1387  071F  0BD4               	decfsz	((??_main+0)+0+2),f
  1388  0720  2F1B               	goto	u2667
  1389                           opt subtitle "HI-TECH Software Omniscient Code Generator (Lite mode) build 49521"
  1390                           
  1391                           opt pagewidth 120
  1392                           
  1393  0721                     l2191:	
  1394                           opt subtitle "HI-TECH Software Omniscient Code Generator (Lite mode) build 49521"
  1395  0721  3078               	movlw	((STR_6-__stringbase))&0ffh
  1396  0722  120A  118A  2092   	fcall	_uartPutstr
              120A  118A         
  1397  0727  2F28               	goto	l2193
  1398                           opt subtitle "HI-TECH Software Omniscient Code Generator (Lite mode) build 49521"
  1399                           
  1400                           opt pagewidth 120
  1401  0728                     l135:	
  1402                           opt subtitle "HI-TECH Software Omniscient Code Generator (Lite mode) build 49521"
  1403                           
  1404  0728                     l2193:	
  1405                           opt subtitle "HI-TECH Software Omniscient Code Generator (Lite mode) build 49521"
  1406                           
  1407  0728  120A  158A  24B5   	fcall	_uartReceive
              120A  118A         
  1408  072D  1283               	bcf	status, 5	;RP0=0, select bank0
  1409  072E  1303               	bcf	status, 6	;RP1=0, select bank0
  1410  072F  00D2               	movwf	(??_main+0)+0
  1411  0730  0852               	movf	(??_main+0)+0,w
  1412  0731  00D7               	movwf	(main@dataRx)
  1413                           opt subtitle "HI-TECH Software Omniscient Code Generator (Lite mode) build 49521"
  1414                           
  1415  0732                     l2195:	
  1416                           opt subtitle "HI-TECH Software Omniscient Code Generator (Lite mode) build 49521"
  1417  0732  0857               	movf	(main@dataRx),w
  1418  0733  3A77               	xorlw	077h
  1419  0734  1903               	skipnz
  1420  0735  2F37               	goto	u2521
  1421  0736  2F38               	goto	u2520
  1422  0737                     u2521:
  1423  0737  2F3F               	goto	l2199
  1424  0738                     u2520:
  1425                           opt subtitle "HI-TECH Software Omniscient Code Generator (Lite mode) build 49521"
  1426  0738                     l2197:	
  1427  0738  0857               	movf	(main@dataRx),w
  1428  0739  3A57               	xorlw	057h
  1429  073A  1D03               	skipz
  1430  073B  2F3D               	goto	u2531
  1431  073C  2F3E               	goto	u2530
  1432  073D                     u2531:
  1433  073D  2F52               	goto	l2203
  1434  073E                     u2530:
  1435  073E  2F3F               	goto	l2199
  1436                           opt subtitle "HI-TECH Software Omniscient Code Generator (Lite mode) build 49521"
  1437  073F                     l138:	
  1438                           opt subtitle "HI-TECH Software Omniscient Code Generator (Lite mode) build 49521"
  1439                           
  1440  073F                     l2199:	
  1441                           opt subtitle "HI-TECH Software Omniscient Code Generator (Lite mode) build 49521"
  1442                           
  1443  073F  3055               	movlw	((STR_7-__stringbase))&0ffh
  1444  0740  120A  118A  2092   	fcall	_uartPutstr
              120A  118A         
  1445                           opt subtitle "HI-TECH Software Omniscient Code Generator (Lite mode) build 49521"
  1446                           
  1447  0745                     l2201:	
  1448                           opt subtitle "HI-TECH Software Omniscient Code Generator (Lite mode) build 49521"
  1449  0745  303C               	movlw	(03Ch)
  1450  0746  1283               	bcf	status, 5	;RP0=0, select bank0
  1451  0747  1303               	bcf	status, 6	;RP1=0, select bank0
  1452  0748  00D2               	movwf	(??_main+0)+0
  1453  0749  0852               	movf	(??_main+0)+0,w
  1454  074A  00AA               	movwf	(?_motor)
  1455  074B  303C               	movlw	(03Ch)
  1456  074C  120A  118A  214E   	fcall	_motor
              120A  118A         
  1457                           opt subtitle "HI-TECH Software Omniscient Code Generator (Lite mode) build 49521"
  1458                           
  1459  0751  2F28               	goto	l2193
  1460                           opt subtitle "HI-TECH Software Omniscient Code Generator (Lite mode) build 49521"
  1461                           
  1462  0752                     l136:	
  1463                           opt subtitle "HI-TECH Software Omniscient Code Generator (Lite mode) build 49521"
  1464  0752                     l2203:	
  1465                           opt subtitle "HI-TECH Software Omniscient Code Generator (Lite mode) build 49521"
  1466  0752  1283               	bcf	status, 5	;RP0=0, select bank0
  1467  0753  1303               	bcf	status, 6	;RP1=0, select bank0
  1468  0754  0857               	movf	(main@dataRx),w
  1469  0755  3A61               	xorlw	061h
  1470  0756  1903               	skipnz
  1471  0757  2F59               	goto	u2541
  1472  0758  2F5A               	goto	u2540
  1473  0759                     u2541:
  1474  0759  2F61               	goto	l2207
  1475  075A                     u2540:
  1476                           opt subtitle "HI-TECH Software Omniscient Code Generator (Lite mode) build 49521"
  1477  075A                     l2205:	
  1478  075A  0857               	movf	(main@dataRx),w
  1479  075B  3A41               	xorlw	041h
  1480  075C  1D03               	skipz
  1481  075D  2F5F               	goto	u2551
  1482  075E  2F60               	goto	u2550
  1483  075F                     u2551:
  1484  075F  2F74               	goto	l2211
  1485  0760                     u2550:
  1486  0760  2F61               	goto	l2207
  1487                           opt subtitle "HI-TECH Software Omniscient Code Generator (Lite mode) build 49521"
  1488  0761                     l142:	
  1489                           opt subtitle "HI-TECH Software Omniscient Code Generator (Lite mode) build 49521"
  1490                           
  1491  0761                     l2207:	
  1492                           opt subtitle "HI-TECH Software Omniscient Code Generator (Lite mode) build 49521"
  1493                           
  1494  0761  3043               	movlw	((STR_8-__stringbase))&0ffh
  1495  0762  120A  118A  2092   	fcall	_uartPutstr
              120A  118A         
  1496                           opt subtitle "HI-TECH Software Omniscient Code Generator (Lite mode) build 49521"
  1497                           
  1498  0767                     l2209:	
  1499                           opt subtitle "HI-TECH Software Omniscient Code Generator (Lite mode) build 49521"
  1500  0767  3032               	movlw	(032h)
  1501  0768  1283               	bcf	status, 5	;RP0=0, select bank0
  1502  0769  1303               	bcf	status, 6	;RP1=0, select bank0
  1503  076A  00D2               	movwf	(??_main+0)+0
  1504  076B  0852               	movf	(??_main+0)+0,w
  1505  076C  00AA               	movwf	(?_motor)
  1506  076D  30CE               	movlw	(-50)
  1507  076E  120A  118A  214E   	fcall	_motor
              120A  118A         
  1508                           opt subtitle "HI-TECH Software Omniscient Code Generator (Lite mode) build 49521"
  1509                           
  1510  0773  2F28               	goto	l2193
  1511                           opt subtitle "HI-TECH Software Omniscient Code Generator (Lite mode) build 49521"
  1512                           
  1513  0774                     l140:	
  1514                           opt subtitle "HI-TECH Software Omniscient Code Generator (Lite mode) build 49521"
  1515  0774                     l2211:	
  1516                           opt subtitle "HI-TECH Software Omniscient Code Generator (Lite mode) build 49521"
  1517  0774  1283               	bcf	status, 5	;RP0=0, select bank0
  1518  0775  1303               	bcf	status, 6	;RP1=0, select bank0
  1519  0776  0857               	movf	(main@dataRx),w
  1520  0777  3A64               	xorlw	064h
  1521  0778  1903               	skipnz
  1522  0779  2F7B               	goto	u2561
  1523  077A  2F7C               	goto	u2560
  1524  077B                     u2561:
  1525  077B  2F83               	goto	l2215
  1526  077C                     u2560:
  1527                           opt subtitle "HI-TECH Software Omniscient Code Generator (Lite mode) build 49521"
  1528  077C                     l2213:	
  1529  077C  0857               	movf	(main@dataRx),w
  1530  077D  3A44               	xorlw	044h
  1531  077E  1D03               	skipz
  1532  077F  2F81               	goto	u2571
  1533  0780  2F82               	goto	u2570
  1534  0781                     u2571:
  1535  0781  2F96               	goto	l2219
  1536  0782                     u2570:
  1537  0782  2F83               	goto	l2215
  1538                           opt subtitle "HI-TECH Software Omniscient Code Generator (Lite mode) build 49521"
  1539  0783                     l146:	
  1540                           opt subtitle "HI-TECH Software Omniscient Code Generator (Lite mode) build 49521"
  1541                           
  1542  0783                     l2215:	
  1543                           opt subtitle "HI-TECH Software Omniscient Code Generator (Lite mode) build 49521"
  1544                           
  1545  0783  3030               	movlw	((STR_9-__stringbase))&0ffh
  1546  0784  120A  118A  2092   	fcall	_uartPutstr
              120A  118A         
  1547                           opt subtitle "HI-TECH Software Omniscient Code Generator (Lite mode) build 49521"
  1548                           
  1549  0789                     l2217:	
  1550                           opt subtitle "HI-TECH Software Omniscient Code Generator (Lite mode) build 49521"
  1551  0789  30CE               	movlw	(-50)
  1552  078A  1283               	bcf	status, 5	;RP0=0, select bank0
  1553  078B  1303               	bcf	status, 6	;RP1=0, select bank0
  1554  078C  00D2               	movwf	(??_main+0)+0
  1555  078D  0852               	movf	(??_main+0)+0,w
  1556  078E  00AA               	movwf	(?_motor)
  1557  078F  3032               	movlw	(032h)
  1558  0790  120A  118A  214E   	fcall	_motor
              120A  118A         
  1559                           opt subtitle "HI-TECH Software Omniscient Code Generator (Lite mode) build 49521"
  1560                           
  1561  0795  2F28               	goto	l2193
  1562                           opt subtitle "HI-TECH Software Omniscient Code Generator (Lite mode) build 49521"
  1563                           
  1564  0796                     l144:	
  1565                           opt subtitle "HI-TECH Software Omniscient Code Generator (Lite mode) build 49521"
  1566  0796                     l2219:	
  1567                           opt subtitle "HI-TECH Software Omniscient Code Generator (Lite mode) build 49521"
  1568  0796  1283               	bcf	status, 5	;RP0=0, select bank0
  1569  0797  1303               	bcf	status, 6	;RP1=0, select bank0
  1570  0798  0857               	movf	(main@dataRx),w
  1571  0799  3A73               	xorlw	073h
  1572  079A  1903               	skipnz
  1573  079B  2F9D               	goto	u2581
  1574  079C  2F9E               	goto	u2580
  1575  079D                     u2581:
  1576  079D  2FA5               	goto	l2223
  1577  079E                     u2580:
  1578                           opt subtitle "HI-TECH Software Omniscient Code Generator (Lite mode) build 49521"
  1579  079E                     l2221:	
  1580  079E  0857               	movf	(main@dataRx),w
  1581  079F  3A53               	xorlw	053h
  1582  07A0  1D03               	skipz
  1583  07A1  2FA3               	goto	u2591
  1584  07A2  2FA4               	goto	u2590
  1585  07A3                     u2591:
  1586  07A3  2F28               	goto	l2193
  1587  07A4                     u2590:
  1588  07A4  2FA5               	goto	l2223
  1589                           opt subtitle "HI-TECH Software Omniscient Code Generator (Lite mode) build 49521"
  1590  07A5                     l150:	
  1591                           opt subtitle "HI-TECH Software Omniscient Code Generator (Lite mode) build 49521"
  1592                           
  1593  07A5                     l2223:	
  1594                           opt subtitle "HI-TECH Software Omniscient Code Generator (Lite mode) build 49521"
  1595                           
  1596  07A5  3082               	movlw	((STR_10-__stringbase))&0ffh
  1597  07A6  120A  118A  2092   	fcall	_uartPutstr
              120A  118A         
  1598                           opt subtitle "HI-TECH Software Omniscient Code Generator (Lite mode) build 49521"
  1599                           
  1600  07AB                     l2225:	
  1601                           opt subtitle "HI-TECH Software Omniscient Code Generator (Lite mode) build 49521"
  1602  07AB  1283               	bcf	status, 5	;RP0=0, select bank0
  1603  07AC  1303               	bcf	status, 6	;RP1=0, select bank0
  1604  07AD  01AA               	clrf	(?_motor)
  1605  07AE  3000               	movlw	(0)
  1606  07AF  120A  118A  214E   	fcall	_motor
              120A  118A         
  1607  07B4  2F28               	goto	l2193
  1608                           opt subtitle "HI-TECH Software Omniscient Code Generator (Lite mode) build 49521"
  1609                           
  1610  07B5                     l148:	
  1611  07B5  2F28               	goto	l2193
  1612                           opt subtitle "HI-TECH Software Omniscient Code Generator (Lite mode) build 49521"
  1613                           
  1614  07B6                     l147:	
  1615  07B6  2F28               	goto	l2193
  1616                           opt subtitle "HI-TECH Software Omniscient Code Generator (Lite mode) build 49521"
  1617  07B7                     l143:	
  1618  07B7  2F28               	goto	l2193
  1619                           opt subtitle "HI-TECH Software Omniscient Code Generator (Lite mode) build 49521"
  1620  07B8                     l139:	
  1621  07B8  2F28               	goto	l2193
  1622                           opt subtitle "HI-TECH Software Omniscient Code Generator (Lite mode) build 49521"
  1623  07B9                     l151:	
  1624                           opt subtitle "HI-TECH Software Omniscient Code Generator (Lite mode) build 49521"
  1625  07B9  2F28               	goto	l2193
  1626                           opt subtitle "HI-TECH Software Omniscient Code Generator (Lite mode) build 49521"
  1627  07BA                     l152:	
  1628                           opt subtitle "HI-TECH Software Omniscient Code Generator (Lite mode) build 49521"
  1629                           
  1630                           opt pagewidth 120
  1631                           
  1632  07BA  2E60               	goto	l2153
  1633                           opt subtitle "HI-TECH Software Omniscient Code Generator (Lite mode) build 49521"
  1634                           
  1635  07BB                     l134:	
  1636                           opt subtitle "HI-TECH Software Omniscient Code Generator (Lite mode) build 49521"
  1637  07BB  1886               	btfsc	(49/8),(49)&7	;volatile
  1638  07BC  2FBE               	goto	u2601
  1639  07BD  2FBF               	goto	u2600
  1640  07BE                     u2601:
  1641  07BE  2E60               	goto	l2153
  1642  07BF                     u2600:
  1643                           opt subtitle "HI-TECH Software Omniscient Code Generator (Lite mode) build 49521"
  1644                           
  1645  07BF                     l2227:	
  1646                           opt subtitle "HI-TECH Software Omniscient Code Generator (Lite mode) build 49521"
  1647                           
  1648  07BF  0856               	movf	(main@sw2press),w
  1649  07C0  00D2               	movwf	(??_main+0)+0+0
  1650  07C1  01D3               	clrf	(??_main+0)+0+1
  1651  07C2  0852               	movf	0+(??_main+0)+0,w
  1652  07C3  00F8               	movwf	(?_uartNumber)
  1653  07C4  0853               	movf	1+(??_main+0)+0,w
  1654  07C5  00F9               	movwf	(?_uartNumber+1)
  1655  07C6  300A               	movlw	(0Ah)
  1656  07C7  00D4               	movwf	(??_main+2)+0
  1657  07C8  0854               	movf	(??_main+2)+0,w
  1658  07C9  00FA               	movwf	0+(?_uartNumber)+02h
  1659  07CA  3002               	movlw	(02h)
  1660  07CB  00D5               	movwf	(??_main+3)+0
  1661  07CC  0855               	movf	(??_main+3)+0,w
  1662  07CD  00FB               	movwf	0+(?_uartNumber)+03h
  1663  07CE  120A  118A  20B3   	fcall	_uartNumber
              120A  118A         
  1664                           opt subtitle "HI-TECH Software Omniscient Code Generator (Lite mode) build 49521"
  1665  07D3                     l2229:	
  1666  07D3  3001               	movlw	(01h)
  1667  07D4  1283               	bcf	status, 5	;RP0=0, select bank0
  1668  07D5  1303               	bcf	status, 6	;RP1=0, select bank0
  1669  07D6  00D2               	movwf	(??_main+0)+0
  1670  07D7  0852               	movf	(??_main+0)+0,w
  1671  07D8  07D6               	addwf	(main@sw2press),f
  1672                           opt subtitle "HI-TECH Software Omniscient Code Generator (Lite mode) build 49521"
  1673                           
  1674  07D9                     l2231:	
  1675                           opt subtitle "HI-TECH Software Omniscient Code Generator (Lite mode) build 49521"
  1676  07D9  305F               	movlw	((STR_11-__stringbase))&0ffh
  1677  07DA  120A  118A  2092   	fcall	_uartPutstr
              120A  118A         
  1678                           opt subtitle "HI-TECH Software Omniscient Code Generator (Lite mode) build 49521"
  1679                           
  1680  07DF                     l2233:	
  1681                           opt subtitle "HI-TECH Software Omniscient Code Generator (Lite mode) build 49521"
  1682  07DF  3001               	movlw	((STR_12-__stringbase))&0ffh
  1683  07E0  120A  118A  2092   	fcall	_uartPutstr
              120A  118A         
  1684                           opt subtitle "HI-TECH Software Omniscient Code Generator (Lite mode) build 49521"
  1685                           
  1686  07E5                     l2235:	
  1687                           opt subtitle "HI-TECH Software Omniscient Code Generator (Lite mode) build 49521"
  1688  07E5  120A  158A  24B5   	fcall	_uartReceive
              120A  118A         
  1689  07EA  1283               	bcf	status, 5	;RP0=0, select bank0
  1690  07EB  1303               	bcf	status, 6	;RP1=0, select bank0
  1691  07EC  00D2               	movwf	(??_main+0)+0
  1692  07ED  0852               	movf	(??_main+0)+0,w
  1693  07EE  00D7               	movwf	(main@dataRx)
  1694                           opt subtitle "HI-TECH Software Omniscient Code Generator (Lite mode) build 49521"
  1695                           
  1696  07EF                     l2237:	
  1697                           opt subtitle "HI-TECH Software Omniscient Code Generator (Lite mode) build 49521"
  1698  07EF  3032               	movlw	low(032h)
  1699  07F0  00F0               	movwf	(?_beep)
  1700  07F1  3000               	movlw	high(032h)
  1701  07F2  00F1               	movwf	((?_beep))+1
  1702  07F3  3001               	movlw	(01h)
  1703  07F4  120A  158A  25EB   	fcall	_beep
              120A  118A         
  1704  07F9  2E60               	goto	l2153
  1705                           opt subtitle "HI-TECH Software Omniscient Code Generator (Lite mode) build 49521"
  1706                           
  1707  07FA                     l154:	
  1708  07FA  2E60               	goto	l2153
  1709                           opt subtitle "HI-TECH Software Omniscient Code Generator (Lite mode) build 49521"
  1710                           
  1711  07FB                     l153:	
  1712  07FB  2E60               	goto	l2153
  1713                           opt subtitle "HI-TECH Software Omniscient Code Generator (Lite mode) build 49521"
  1714  07FC                     l155:	
  1715                           opt subtitle "HI-TECH Software Omniscient Code Generator (Lite mode) build 49521"
  1716  07FC  2E60               	goto	l2153
  1717                           opt subtitle "HI-TECH Software Omniscient Code Generator (Lite mode) build 49521"
  1718  07FD                     l156:	
  1719                           opt subtitle "HI-TECH Software Omniscient Code Generator (Lite mode) build 49521"
  1720                           
  1721  07FD                     l157:	
  1722                           opt subtitle "HI-TECH Software Omniscient Code Generator (Lite mode) build 49521"
  1723  07FD  120A  118A  2800   	ljmp	start
  1724                           opt subtitle "HI-TECH Software Omniscient Code Generator (Lite mode) build 49521"
  1725                           
  1726  0800                     	__end_of_main:
  1727                           opt subtitle "HI-TECH Software Omniscient Code Generator (Lite mode) build 49521"
  1728                           
  1729                           opt pagewidth 120
  1730                           
  1731                           	opt lm
  1732                           
  1733                           	processor	16F887
  1734                           clrc	macro
  1735                           	bcf	3,0
  1736                           	endm
  1737                           clrz	macro
  1738                           	bcf	3,2
  1739                           	endm
  1740                           setc	macro
  1741                           	bsf	3,0
  1742                           	endm
  1743                           setz	macro
  1744                           	bsf	3,2
  1745                           	endm
  1746                           skipc	macro
  1747                           	btfss	3,0
  1748                           	endm
  1749                           skipz	macro
  1750                           	btfss	3,2
  1751                           	endm
  1752                           skipnc	macro
  1753                           	btfsc	3,0
  1754                           	endm
  1755                           skipnz	macro
  1756                           	btfsc	3,2
  1757                           	endm
  1758                           indf	equ	0
  1759                           indf0	equ	0
  1760                           pc	equ	2
  1761                           pcl	equ	2
  1762                           status	equ	3
  1763                           fsr	equ	4
  1764  0403                     __ptext445:	;psect for function _uartInit
  1765                           opt subtitle "HI-TECH Software Omniscient Code Generator (Lite mode) build 49521"
  1766                           
  1767                           opt pagewidth 120
  1768                           
  1769  00F6                     	__size_of_uartInit	equ	__end_of_uartInit-_uartInit
  1770                           opt subtitle "HI-TECH Software Omniscient Code Generator (Lite mode) build 49521"
  1771  0403                     _uartInit:	
  1772                           opt subtitle "HI-TECH Software Omniscient Code Generator (Lite mode) build 49521"
  1773                           
  1774                           opt pagewidth 120
  1775                           
  1776  0403                     l2135:	
  1777                           opt subtitle "HI-TECH Software Omniscient Code Generator (Lite mode) build 49521"
  1778  0403  1683               	bsf	status, 5	;RP0=1, select bank1
  1779  0404  1303               	bcf	status, 6	;RP1=0, select bank1
  1780  0405  1698               	bsf	(1221/8)^080h,(1221)&7	;volatile
  1781                           opt subtitle "HI-TECH Software Omniscient Code Generator (Lite mode) build 49521"
  1782                           
  1783  0406  1318               	bcf	(1222/8)^080h,(1222)&7	;volatile
  1784                           opt subtitle "HI-TECH Software Omniscient Code Generator (Lite mode) build 49521"
  1785                           
  1786  0407  1283               	bcf	status, 5	;RP0=0, select bank0
  1787  0408  1303               	bcf	status, 6	;RP1=0, select bank0
  1788  0409  1318               	bcf	(198/8),(198)&7	;volatile
  1789                           opt subtitle "HI-TECH Software Omniscient Code Generator (Lite mode) build 49521"
  1790                           
  1791  040A  1618               	bsf	(196/8),(196)&7	;volatile
  1792                           opt subtitle "HI-TECH Software Omniscient Code Generator (Lite mode) build 49521"
  1793                           
  1794  040B  1798               	bsf	(199/8),(199)&7	;volatile
  1795                           opt subtitle "HI-TECH Software Omniscient Code Generator (Lite mode) build 49521"
  1796                           
  1797  040C                     l2137:	
  1798                           opt subtitle "HI-TECH Software Omniscient Code Generator (Lite mode) build 49521"
  1799  040C  3000               	movlw	0
  1800  040D  024E               	subwf	(uartInit@baudrate+3),w
  1801  040E  1D03               	skipz
  1802  040F  2C1A               	goto	u2495
  1803  0410  3000               	movlw	0
  1804  0411  024D               	subwf	(uartInit@baudrate+2),w
  1805  0412  1D03               	skipz
  1806  0413  2C1A               	goto	u2495
  1807  0414  3023               	movlw	023h
  1808  0415  024C               	subwf	(uartInit@baudrate+1),w
  1809  0416  1D03               	skipz
  1810  0417  2C1A               	goto	u2495
  1811  0418  3029               	movlw	029h
  1812  0419  024B               	subwf	(uartInit@baudrate),w
  1813  041A                     u2495:
  1814  041A  1C03               	skipc
  1815  041B  2C1D               	goto	u2491
  1816  041C  2C1E               	goto	u2490
  1817  041D                     u2491:
  1818  041D  2C81               	goto	l2143
  1819  041E                     u2490:
  1820                           opt subtitle "HI-TECH Software Omniscient Code Generator (Lite mode) build 49521"
  1821                           
  1822  041E                     l2139:	
  1823                           opt subtitle "HI-TECH Software Omniscient Code Generator (Lite mode) build 49521"
  1824                           
  1825  041E  1683               	bsf	status, 5	;RP0=1, select bank1
  1826  041F  1303               	bcf	status, 6	;RP1=0, select bank1
  1827  0420  1518               	bsf	(1218/8)^080h,(1218)&7	;volatile
  1828                           opt subtitle "HI-TECH Software Omniscient Code Generator (Lite mode) build 49521"
  1829                           
  1830  0421                     l2141:	
  1831                           opt subtitle "HI-TECH Software Omniscient Code Generator (Lite mode) build 49521"
  1832  0421  3024               	movlw	0x24
  1833  0422  1283               	bcf	status, 5	;RP0=0, select bank0
  1834  0423  1303               	bcf	status, 6	;RP1=0, select bank0
  1835  0424  00B1               	movwf	0+(?___ftdiv)+03h
  1836  0425  30F4               	movlw	0xf4
  1837  0426  00B2               	movwf	1+(?___ftdiv)+03h
  1838  0427  304A               	movlw	0x4a
  1839  0428  00B3               	movwf	2+(?___ftdiv)+03h
  1840  0429  084E               	movf	(uartInit@baudrate+3),w
  1841  042A  00AD               	movwf	(?___lltoft+3)
  1842  042B  084D               	movf	(uartInit@baudrate+2),w
  1843  042C  00AC               	movwf	(?___lltoft+2)
  1844  042D  084C               	movf	(uartInit@baudrate+1),w
  1845  042E  00AB               	movwf	(?___lltoft+1)
  1846  042F  084B               	movf	(uartInit@baudrate),w
  1847  0430  00AA               	movwf	(?___lltoft)
  1848                           opt subtitle "HI-TECH Software Omniscient Code Generator (Lite mode) build 49521"
  1849  0431  120A  158A  2523   	fcall	___lltoft
              120A  118A         
  1850  0436  1283               	bcf	status, 5	;RP0=0, select bank0
  1851  0437  1303               	bcf	status, 6	;RP1=0, select bank0
  1852  0438  082A               	movf	(0+(?___lltoft)),w
  1853  0439  00AE               	movwf	(?___ftdiv)
  1854  043A  082B               	movf	(1+(?___lltoft)),w
  1855  043B  00AF               	movwf	(?___ftdiv+1)
  1856  043C  082C               	movf	(2+(?___lltoft)),w
  1857  043D  00B0               	movwf	(?___ftdiv+2)
  1858  043E  120A  118A  233B   	fcall	___ftdiv
              120A  118A         
  1859  0443  1283               	bcf	status, 5	;RP0=0, select bank0
  1860  0444  1303               	bcf	status, 6	;RP1=0, select bank0
  1861  0445  082E               	movf	(0+(?___ftdiv)),w
  1862  0446  00CF               	movwf	(_uartInit$550)
  1863  0447  082F               	movf	(1+(?___ftdiv)),w
  1864  0448  00D0               	movwf	(_uartInit$550+1)
  1865  0449  0830               	movf	(2+(?___ftdiv)),w
  1866  044A  00D1               	movwf	(_uartInit$550+2)
  1867                           opt subtitle "HI-TECH Software Omniscient Code Generator (Lite mode) build 49521"
  1868  044B  084F               	movf	(_uartInit$550),w
  1869  044C  00B1               	movwf	0+(?___ftdiv)+03h
  1870  044D  0850               	movf	(_uartInit$550+1),w
  1871  044E  00B2               	movwf	1+(?___ftdiv)+03h
  1872  044F  0851               	movf	(_uartInit$550+2),w
  1873  0450  00B3               	movwf	2+(?___ftdiv)+03h
  1874  0451  3000               	movlw	0x0
  1875  0452  00AE               	movwf	(?___ftdiv)
  1876  0453  3080               	movlw	0x80
  1877  0454  00AF               	movwf	(?___ftdiv+1)
  1878  0455  3041               	movlw	0x41
  1879  0456  00B0               	movwf	(?___ftdiv+2)
  1880  0457  120A  118A  233B   	fcall	___ftdiv
              120A  118A         
  1881  045C  1283               	bcf	status, 5	;RP0=0, select bank0
  1882  045D  1303               	bcf	status, 6	;RP1=0, select bank0
  1883  045E  082E               	movf	(0+(?___ftdiv)),w
  1884  045F  00C1               	movwf	0+(?___ftadd)+03h
  1885  0460  082F               	movf	(1+(?___ftdiv)),w
  1886  0461  00C2               	movwf	1+(?___ftadd)+03h
  1887  0462  0830               	movf	(2+(?___ftdiv)),w
  1888  0463  00C3               	movwf	2+(?___ftadd)+03h
  1889  0464  3000               	movlw	0x0
  1890  0465  00BE               	movwf	(?___ftadd)
  1891  0466  3000               	movlw	0x0
  1892  0467  00BF               	movwf	(?___ftadd+1)
  1893  0468  30BF               	movlw	0xbf
  1894  0469  00C0               	movwf	(?___ftadd+2)
  1895  046A  120A  118A  24F9   	fcall	___ftadd
              120A  118A         
  1896  046F  1283               	bcf	status, 5	;RP0=0, select bank0
  1897  0470  1303               	bcf	status, 6	;RP1=0, select bank0
  1898  0471  083E               	movf	(0+(?___ftadd)),w
  1899  0472  00F8               	movwf	(?___fttol)
  1900  0473  083F               	movf	(1+(?___ftadd)),w
  1901  0474  00F9               	movwf	(?___fttol+1)
  1902  0475  0840               	movf	(2+(?___ftadd)),w
  1903  0476  00FA               	movwf	(?___fttol+2)
  1904  0477  120A  118A  2295   	fcall	___fttol
              120A  118A         
  1905  047C  0878               	movf	0+(((0+(?___fttol)))),w
  1906  047D  1683               	bsf	status, 5	;RP0=1, select bank1
  1907  047E  1303               	bcf	status, 6	;RP1=0, select bank1
  1908  047F  0099               	movwf	(153)^080h	;volatile
  1909                           opt subtitle "HI-TECH Software Omniscient Code Generator (Lite mode) build 49521"
  1910                           
  1911  0480  2CF8               	goto	l94
  1912                           opt subtitle "HI-TECH Software Omniscient Code Generator (Lite mode) build 49521"
  1913                           
  1914  0481                     l91:	
  1915                           opt subtitle "HI-TECH Software Omniscient Code Generator (Lite mode) build 49521"
  1916  0481                     l2143:	
  1917                           opt subtitle "HI-TECH Software Omniscient Code Generator (Lite mode) build 49521"
  1918  0481  3000               	movlw	0
  1919  0482  1283               	bcf	status, 5	;RP0=0, select bank0
  1920  0483  024E               	subwf	(uartInit@baudrate+3),w
  1921  0484  1D03               	skipz
  1922  0485  2C90               	goto	u2505
  1923  0486  3000               	movlw	0
  1924  0487  024D               	subwf	(uartInit@baudrate+2),w
  1925  0488  1D03               	skipz
  1926  0489  2C90               	goto	u2505
  1927  048A  3023               	movlw	023h
  1928  048B  024C               	subwf	(uartInit@baudrate+1),w
  1929  048C  1D03               	skipz
  1930  048D  2C90               	goto	u2505
  1931  048E  3028               	movlw	028h
  1932  048F  024B               	subwf	(uartInit@baudrate),w
  1933  0490                     u2505:
  1934  0490  1803               	skipnc
  1935  0491  2C93               	goto	u2501
  1936  0492  2C94               	goto	u2500
  1937  0493                     u2501:
  1938  0493  2CF8               	goto	l94
  1939  0494                     u2500:
  1940                           opt subtitle "HI-TECH Software Omniscient Code Generator (Lite mode) build 49521"
  1941                           
  1942  0494                     l2145:	
  1943                           opt subtitle "HI-TECH Software Omniscient Code Generator (Lite mode) build 49521"
  1944                           
  1945  0494  1683               	bsf	status, 5	;RP0=1, select bank1
  1946  0495  1303               	bcf	status, 6	;RP1=0, select bank1
  1947  0496  1118               	bcf	(1218/8)^080h,(1218)&7	;volatile
  1948                           opt subtitle "HI-TECH Software Omniscient Code Generator (Lite mode) build 49521"
  1949                           
  1950  0497                     l2147:	
  1951                           opt subtitle "HI-TECH Software Omniscient Code Generator (Lite mode) build 49521"
  1952  0497  3024               	movlw	0x24
  1953  0498  1283               	bcf	status, 5	;RP0=0, select bank0
  1954  0499  1303               	bcf	status, 6	;RP1=0, select bank0
  1955  049A  00B1               	movwf	0+(?___ftdiv)+03h
  1956  049B  30F4               	movlw	0xf4
  1957  049C  00B2               	movwf	1+(?___ftdiv)+03h
  1958  049D  304A               	movlw	0x4a
  1959  049E  00B3               	movwf	2+(?___ftdiv)+03h
  1960  049F  084E               	movf	(uartInit@baudrate+3),w
  1961  04A0  00AD               	movwf	(?___lltoft+3)
  1962  04A1  084D               	movf	(uartInit@baudrate+2),w
  1963  04A2  00AC               	movwf	(?___lltoft+2)
  1964  04A3  084C               	movf	(uartInit@baudrate+1),w
  1965  04A4  00AB               	movwf	(?___lltoft+1)
  1966  04A5  084B               	movf	(uartInit@baudrate),w
  1967  04A6  00AA               	movwf	(?___lltoft)
  1968                           opt subtitle "HI-TECH Software Omniscient Code Generator (Lite mode) build 49521"
  1969  04A7  120A  158A  2523   	fcall	___lltoft
              120A  118A         
  1970  04AC  1283               	bcf	status, 5	;RP0=0, select bank0
  1971  04AD  1303               	bcf	status, 6	;RP1=0, select bank0
  1972  04AE  082A               	movf	(0+(?___lltoft)),w
  1973  04AF  00AE               	movwf	(?___ftdiv)
  1974  04B0  082B               	movf	(1+(?___lltoft)),w
  1975  04B1  00AF               	movwf	(?___ftdiv+1)
  1976  04B2  082C               	movf	(2+(?___lltoft)),w
  1977  04B3  00B0               	movwf	(?___ftdiv+2)
  1978  04B4  120A  118A  233B   	fcall	___ftdiv
              120A  118A         
  1979  04B9  1283               	bcf	status, 5	;RP0=0, select bank0
  1980  04BA  1303               	bcf	status, 6	;RP1=0, select bank0
  1981  04BB  082E               	movf	(0+(?___ftdiv)),w
  1982  04BC  00CF               	movwf	(_uartInit$550)
  1983  04BD  082F               	movf	(1+(?___ftdiv)),w
  1984  04BE  00D0               	movwf	(_uartInit$550+1)
  1985  04BF  0830               	movf	(2+(?___ftdiv)),w
  1986  04C0  00D1               	movwf	(_uartInit$550+2)
  1987                           opt subtitle "HI-TECH Software Omniscient Code Generator (Lite mode) build 49521"
  1988  04C1  084F               	movf	(_uartInit$550),w
  1989  04C2  00B1               	movwf	0+(?___ftdiv)+03h
  1990  04C3  0850               	movf	(_uartInit$550+1),w
  1991  04C4  00B2               	movwf	1+(?___ftdiv)+03h
  1992  04C5  0851               	movf	(_uartInit$550+2),w
  1993  04C6  00B3               	movwf	2+(?___ftdiv)+03h
  1994  04C7  3000               	movlw	0x0
  1995  04C8  00AE               	movwf	(?___ftdiv)
  1996  04C9  3080               	movlw	0x80
  1997  04CA  00AF               	movwf	(?___ftdiv+1)
  1998  04CB  3042               	movlw	0x42
  1999  04CC  00B0               	movwf	(?___ftdiv+2)
  2000  04CD  120A  118A  233B   	fcall	___ftdiv
              120A  118A         
  2001  04D2  1283               	bcf	status, 5	;RP0=0, select bank0
  2002  04D3  1303               	bcf	status, 6	;RP1=0, select bank0
  2003  04D4  082E               	movf	(0+(?___ftdiv)),w
  2004  04D5  00C1               	movwf	0+(?___ftadd)+03h
  2005  04D6  082F               	movf	(1+(?___ftdiv)),w
  2006  04D7  00C2               	movwf	1+(?___ftadd)+03h
  2007  04D8  0830               	movf	(2+(?___ftdiv)),w
  2008  04D9  00C3               	movwf	2+(?___ftadd)+03h
  2009  04DA  3000               	movlw	0x0
  2010  04DB  00BE               	movwf	(?___ftadd)
  2011  04DC  3000               	movlw	0x0
  2012  04DD  00BF               	movwf	(?___ftadd+1)
  2013  04DE  30BF               	movlw	0xbf
  2014  04DF  00C0               	movwf	(?___ftadd+2)
  2015  04E0  120A  118A  24F9   	fcall	___ftadd
              120A  118A         
  2016  04E5  1283               	bcf	status, 5	;RP0=0, select bank0
  2017  04E6  1303               	bcf	status, 6	;RP1=0, select bank0
  2018  04E7  083E               	movf	(0+(?___ftadd)),w
  2019  04E8  00F8               	movwf	(?___fttol)
  2020  04E9  083F               	movf	(1+(?___ftadd)),w
  2021  04EA  00F9               	movwf	(?___fttol+1)
  2022  04EB  0840               	movf	(2+(?___ftadd)),w
  2023  04EC  00FA               	movwf	(?___fttol+2)
  2024  04ED  120A  118A  2295   	fcall	___fttol
              120A  118A         
  2025  04F2  0878               	movf	0+(((0+(?___fttol)))),w
  2026  04F3  1683               	bsf	status, 5	;RP0=1, select bank1
  2027  04F4  1303               	bcf	status, 6	;RP1=0, select bank1
  2028  04F5  0099               	movwf	(153)^080h	;volatile
  2029  04F6  2CF8               	goto	l94
  2030                           opt subtitle "HI-TECH Software Omniscient Code Generator (Lite mode) build 49521"
  2031                           
  2032  04F7                     l93:	
  2033  04F7  2CF8               	goto	l94
  2034                           opt subtitle "HI-TECH Software Omniscient Code Generator (Lite mode) build 49521"
  2035                           
  2036  04F8                     l92:	
  2037                           opt subtitle "HI-TECH Software Omniscient Code Generator (Lite mode) build 49521"
  2038  04F8                     l94:	
  2039  04F8  0008               	return
  2040                           opt subtitle "HI-TECH Software Omniscient Code Generator (Lite mode) build 49521"
  2041                           
  2042  04F9                     	__end_of_uartInit:
  2043                           opt subtitle "HI-TECH Software Omniscient Code Generator (Lite mode) build 49521"
  2044                           
  2045                           opt pagewidth 120
  2046                           
  2047                           	opt lm
  2048                           
  2049                           	processor	16F887
  2050                           clrc	macro
  2051                           	bcf	3,0
  2052                           	endm
  2053                           clrz	macro
  2054                           	bcf	3,2
  2055                           	endm
  2056                           setc	macro
  2057                           	bsf	3,0
  2058                           	endm
  2059                           setz	macro
  2060                           	bsf	3,2
  2061                           	endm
  2062                           skipc	macro
  2063                           	btfss	3,0
  2064                           	endm
  2065                           skipz	macro
  2066                           	btfss	3,2
  2067                           	endm
  2068                           skipnc	macro
  2069                           	btfsc	3,0
  2070                           	endm
  2071                           skipnz	macro
  2072                           	btfsc	3,2
  2073                           	endm
  2074                           indf	equ	0
  2075                           indf0	equ	0
  2076                           pc	equ	2
  2077                           pcl	equ	2
  2078                           status	equ	3
  2079                           fsr	equ	4
  2080                           fsr0	equ	4
  2081                           c	equ	1
  2082                           z	equ	0
  2083  0092                     __ptext446:	;psect for function _uartPutstr
  2084                           opt subtitle "HI-TECH Software Omniscient Code Generator (Lite mode) build 49521"
  2085                           
  2086                           opt pagewidth 120
  2087                           
  2088  0021                     	__size_of_uartPutstr	equ	__end_of_uartPutstr-_uartPutstr
  2089                           opt subtitle "HI-TECH Software Omniscient Code Generator (Lite mode) build 49521"
  2090  0092                     _uartPutstr:	
  2091                           opt subtitle "HI-TECH Software Omniscient Code Generator (Lite mode) build 49521"
  2092                           
  2093                           opt pagewidth 120
  2094  0092  00F2               	movwf	(uartPutstr@s)
  2095                           opt subtitle "HI-TECH Software Omniscient Code Generator (Lite mode) build 49521"
  2096                           
  2097  0093                     l1801:	
  2098                           opt subtitle "HI-TECH Software Omniscient Code Generator (Lite mode) build 49521"
  2099  0093  28A5               	goto	l1807
  2100                           opt subtitle "HI-TECH Software Omniscient Code Generator (Lite mode) build 49521"
  2101  0094                     l104:	
  2102                           opt subtitle "HI-TECH Software Omniscient Code Generator (Lite mode) build 49521"
  2103  0094                     l1803:	
  2104  0094  0872               	movf	(uartPutstr@s),w
  2105  0095  0084               	movwf	fsr0
  2106  0096  120A  118A  2003   	fcall	stringdir
              120A  118A         
  2107  009B  120A  158A  24A9   	fcall	_uartTransmit
              120A  118A         
  2108                           opt subtitle "HI-TECH Software Omniscient Code Generator (Lite mode) build 49521"
  2109  00A0                     l1805:	
  2110  00A0  3001               	movlw	(01h)
  2111  00A1  00F1               	movwf	(??_uartPutstr+0)+0
  2112  00A2  0871               	movf	(??_uartPutstr+0)+0,w
  2113  00A3  07F2               	addwf	(uartPutstr@s),f
  2114  00A4  28A5               	goto	l1807
  2115                           opt subtitle "HI-TECH Software Omniscient Code Generator (Lite mode) build 49521"
  2116  00A5                     l103:	
  2117                           opt subtitle "HI-TECH Software Omniscient Code Generator (Lite mode) build 49521"
  2118  00A5                     l1807:	
  2119  00A5  0872               	movf	(uartPutstr@s),w
  2120  00A6  0084               	movwf	fsr0
  2121  00A7  120A  118A  2003   	fcall	stringdir
              120A  118A         
  2122  00AC  3800               	iorlw	0
  2123  00AD  1D03               	skipz
  2124  00AE  28B0               	goto	u1741
  2125  00AF  28B1               	goto	u1740
  2126  00B0                     u1741:
  2127  00B0  2894               	goto	l1803
  2128  00B1                     u1740:
  2129  00B1  28B2               	goto	l106
  2130                           opt subtitle "HI-TECH Software Omniscient Code Generator (Lite mode) build 49521"
  2131  00B2                     l105:	
  2132                           opt subtitle "HI-TECH Software Omniscient Code Generator (Lite mode) build 49521"
  2133                           
  2134  00B2                     l106:	
  2135  00B2  0008               	return
  2136                           opt subtitle "HI-TECH Software Omniscient Code Generator (Lite mode) build 49521"
  2137                           
  2138  00B3                     	__end_of_uartPutstr:
  2139                           opt subtitle "HI-TECH Software Omniscient Code Generator (Lite mode) build 49521"
  2140                           
  2141                           opt pagewidth 120
  2142                           
  2143                           	opt lm
  2144                           
  2145                           	processor	16F887
  2146                           clrc	macro
  2147                           	bcf	3,0
  2148                           	endm
  2149                           clrz	macro
  2150                           	bcf	3,2
  2151                           	endm
  2152                           setc	macro
  2153                           	bsf	3,0
  2154                           	endm
  2155                           setz	macro
  2156                           	bsf	3,2
  2157                           	endm
  2158                           skipc	macro
  2159                           	btfss	3,0
  2160                           	endm
  2161                           skipz	macro
  2162                           	btfss	3,2
  2163                           	endm
  2164                           skipnc	macro
  2165                           	btfsc	3,0
  2166                           	endm
  2167                           skipnz	macro
  2168                           	btfsc	3,2
  2169                           	endm
  2170                           indf	equ	0
  2171                           indf0	equ	0
  2172  0CB5                     __ptext447:	;psect for function _uartReceive
  2173                           opt subtitle "HI-TECH Software Omniscient Code Generator (Lite mode) build 49521"
  2174                           
  2175                           opt pagewidth 120
  2176                           
  2177  0012                     	__size_of_uartReceive	equ	__end_of_uartReceive-_uartReceive
  2178                           opt subtitle "HI-TECH Software Omniscient Code Generator (Lite mode) build 49521"
  2179  0CB5                     _uartReceive:	
  2180                           opt subtitle "HI-TECH Software Omniscient Code Generator (Lite mode) build 49521"
  2181                           
  2182                           opt pagewidth 120
  2183                           
  2184  0CB5                     l1643:	
  2185                           opt subtitle "HI-TECH Software Omniscient Code Generator (Lite mode) build 49521"
  2186  0CB5  1283               	bcf	status, 5	;RP0=0, select bank0
  2187  0CB6  1303               	bcf	status, 6	;RP1=0, select bank0
  2188  0CB7  1C98               	btfss	(193/8),(193)&7	;volatile
  2189  0CB8  2CBA               	goto	u1321
  2190  0CB9  2CBB               	goto	u1320
  2191  0CBA                     u1321:
  2192  0CBA  2CBF               	goto	l110
  2193  0CBB                     u1320:
  2194                           opt subtitle "HI-TECH Software Omniscient Code Generator (Lite mode) build 49521"
  2195  0CBB                     l1645:	
  2196  0CBB  1218               	bcf	(196/8),(196)&7	;volatile
  2197  0CBC  1618               	bsf	(196/8),(196)&7	;volatile
  2198  0CBD  2CBF               	goto	l110
  2199                           opt subtitle "HI-TECH Software Omniscient Code Generator (Lite mode) build 49521"
  2200  0CBE                     l109:	
  2201                           opt subtitle "HI-TECH Software Omniscient Code Generator (Lite mode) build 49521"
  2202                           
  2203  0CBE  2CBF               	goto	l110
  2204                           opt subtitle "HI-TECH Software Omniscient Code Generator (Lite mode) build 49521"
  2205  0CBF                     l111:	
  2206                           opt subtitle "HI-TECH Software Omniscient Code Generator (Lite mode) build 49521"
  2207  0CBF                     l110:	
  2208  0CBF  1E8C               	btfss	(101/8),(101)&7	;volatile
  2209  0CC0  2CC2               	goto	u1331
  2210  0CC1  2CC3               	goto	u1330
  2211  0CC2                     u1331:
  2212  0CC2  2CBF               	goto	l110
  2213  0CC3                     u1330:
  2214  0CC3  2CC4               	goto	l1647
  2215                           opt subtitle "HI-TECH Software Omniscient Code Generator (Lite mode) build 49521"
  2216  0CC4                     l112:	
  2217                           opt subtitle "HI-TECH Software Omniscient Code Generator (Lite mode) build 49521"
  2218                           
  2219  0CC4                     l1647:	
  2220                           opt subtitle "HI-TECH Software Omniscient Code Generator (Lite mode) build 49521"
  2221  0CC4  081A               	movf	(26),w	;volatile
  2222  0CC5  2CC6               	goto	l113
  2223                           opt subtitle "HI-TECH Software Omniscient Code Generator (Lite mode) build 49521"
  2224  0CC6                     l1649:	
  2225                           opt subtitle "HI-TECH Software Omniscient Code Generator (Lite mode) build 49521"
  2226                           
  2227  0CC6                     l113:	
  2228  0CC6  0008               	return
  2229                           opt subtitle "HI-TECH Software Omniscient Code Generator (Lite mode) build 49521"
  2230                           
  2231  0CC7                     	__end_of_uartReceive:
  2232                           opt subtitle "HI-TECH Software Omniscient Code Generator (Lite mode) build 49521"
  2233                           
  2234                           opt pagewidth 120
  2235                           
  2236                           	opt lm
  2237                           
  2238                           	processor	16F887
  2239                           clrc	macro
  2240                           	bcf	3,0
  2241                           	endm
  2242                           clrz	macro
  2243                           	bcf	3,2
  2244                           	endm
  2245                           setc	macro
  2246                           	bsf	3,0
  2247                           	endm
  2248                           setz	macro
  2249                           	bsf	3,2
  2250                           	endm
  2251                           skipc	macro
  2252                           	btfss	3,0
  2253                           	endm
  2254                           skipz	macro
  2255                           	btfss	3,2
  2256                           	endm
  2257                           skipnc	macro
  2258                           	btfsc	3,0
  2259                           	endm
  2260                           skipnz	macro
  2261                           	btfsc	3,2
  2262                           	endm
  2263                           indf	equ	0
  2264                           indf0	equ	0
  2265                           pc	equ	2
  2266                           pcl	equ	2
  2267                           status	equ	3
  2268                           fsr	equ	4
  2269                           fsr0	equ	4
  2270                           c	equ	1
  2271                           z	equ	0
  2272  00B3                     __ptext448:	;psect for function _uartNumber
  2273                           opt subtitle "HI-TECH Software Omniscient Code Generator (Lite mode) build 49521"
  2274                           
  2275                           opt pagewidth 120
  2276                           
  2277  009B                     	__size_of_uartNumber	equ	__end_of_uartNumber-_uartNumber
  2278                           opt subtitle "HI-TECH Software Omniscient Code Generator (Lite mode) build 49521"
  2279  00B3                     _uartNumber:	
  2280                           opt subtitle "HI-TECH Software Omniscient Code Generator (Lite mode) build 49521"
  2281                           
  2282                           opt pagewidth 120
  2283                           
  2284  00B3                     l1809:	
  2285                           opt subtitle "HI-TECH Software Omniscient Code Generator (Lite mode) build 49521"
  2286                           
  2287  00B3  1283               	bcf	status, 5	;RP0=0, select bank0
  2288  00B4  1303               	bcf	status, 6	;RP1=0, select bank0
  2289  00B5  01AD               	clrf	(uartNumber@i)
  2290                           opt subtitle "HI-TECH Software Omniscient Code Generator (Lite mode) build 49521"
  2291  00B6                     l1811:	
  2292  00B6  300A               	movlw	(0Ah)
  2293  00B7  022D               	subwf	(uartNumber@i),w
  2294  00B8  1C03               	skipc
  2295  00B9  28BB               	goto	u1751
  2296  00BA  28BC               	goto	u1750
  2297  00BB                     u1751:
  2298  00BB  28BE               	goto	l1815
  2299  00BC                     u1750:
  2300  00BC  28CD               	goto	l117
  2301                           opt subtitle "HI-TECH Software Omniscient Code Generator (Lite mode) build 49521"
  2302  00BD                     l1813:	
  2303  00BD  28CD               	goto	l117
  2304                           opt subtitle "HI-TECH Software Omniscient Code Generator (Lite mode) build 49521"
  2305  00BE                     l116:	
  2306                           opt subtitle "HI-TECH Software Omniscient Code Generator (Lite mode) build 49521"
  2307  00BE                     l1815:	
  2308  00BE  082D               	movf	(uartNumber@i),w
  2309  00BF  3E23               	addlw	uartNumber@di&0ffh
  2310  00C0  0084               	movwf	fsr0
  2311  00C1  1383               	bcf	status, 7	;select IRP bank0
  2312  00C2  0180               	clrf	indf
  2313                           opt subtitle "HI-TECH Software Omniscient Code Generator (Lite mode) build 49521"
  2314  00C3                     l1817:	
  2315  00C3  3001               	movlw	(01h)
  2316  00C4  00A0               	movwf	(??_uartNumber+0)+0
  2317  00C5  0820               	movf	(??_uartNumber+0)+0,w
  2318  00C6  07AD               	addwf	(uartNumber@i),f
  2319                           opt subtitle "HI-TECH Software Omniscient Code Generator (Lite mode) build 49521"
  2320  00C7                     l1819:	
  2321  00C7  300A               	movlw	(0Ah)
  2322  00C8  022D               	subwf	(uartNumber@i),w
  2323  00C9  1C03               	skipc
  2324  00CA  28CC               	goto	u1761
  2325  00CB  28CD               	goto	u1760
  2326  00CC                     u1761:
  2327  00CC  28BE               	goto	l1815
  2328  00CD                     u1760:
  2329                           opt subtitle "HI-TECH Software Omniscient Code Generator (Lite mode) build 49521"
  2330  00CD                     l117:	
  2331                           opt subtitle "HI-TECH Software Omniscient Code Generator (Lite mode) build 49521"
  2332                           
  2333  00CD  01AD               	clrf	(uartNumber@i)
  2334  00CE  28CF               	goto	l1821
  2335                           opt subtitle "HI-TECH Software Omniscient Code Generator (Lite mode) build 49521"
  2336                           
  2337                           opt pagewidth 120
  2338  00CF                     l118:	
  2339                           opt subtitle "HI-TECH Software Omniscient Code Generator (Lite mode) build 49521"
  2340                           
  2341  00CF                     l1821:	
  2342                           opt subtitle "HI-TECH Software Omniscient Code Generator (Lite mode) build 49521"
  2343                           
  2344  00CF  087A               	movf	(uartNumber@base),w
  2345  00D0  1283               	bcf	status, 5	;RP0=0, select bank0
  2346  00D1  1303               	bcf	status, 6	;RP1=0, select bank0
  2347  00D2  00A0               	movwf	(??_uartNumber+0)+0+0
  2348  00D3  01A1               	clrf	(??_uartNumber+0)+0+1
  2349  00D4  0820               	movf	0+(??_uartNumber+0)+0,w
  2350  00D5  00F0               	movwf	(?___lwmod)
  2351  00D6  0821               	movf	1+(??_uartNumber+0)+0,w
  2352  00D7  00F1               	movwf	(?___lwmod+1)
  2353  00D8  0879               	movf	(uartNumber@no+1),w
  2354  00D9  01F3               	clrf	1+(?___lwmod)+02h
  2355  00DA  07F3               	addwf	1+(?___lwmod)+02h
  2356  00DB  0878               	movf	(uartNumber@no),w
  2357  00DC  01F2               	clrf	0+(?___lwmod)+02h
  2358  00DD  07F2               	addwf	0+(?___lwmod)+02h
  2359                           opt subtitle "HI-TECH Software Omniscient Code Generator (Lite mode) build 49521"
  2360  00DE  120A  158A  255B   	fcall	___lwmod
              120A  118A         
  2361  00E3  0870               	movf	(0+(?___lwmod)),w
  2362  00E4  1283               	bcf	status, 5	;RP0=0, select bank0
  2363  00E5  1303               	bcf	status, 6	;RP1=0, select bank0
  2364  00E6  00A2               	movwf	(??_uartNumber+2)+0
  2365  00E7  082D               	movf	(uartNumber@i),w
  2366  00E8  3E23               	addlw	uartNumber@di&0ffh
  2367  00E9  0084               	movwf	fsr0
  2368  00EA  0822               	movf	(??_uartNumber+2)+0,w
  2369  00EB  1383               	bcf	status, 7	;select IRP bank0
  2370  00EC  0080               	movwf	indf
  2371                           opt subtitle "HI-TECH Software Omniscient Code Generator (Lite mode) build 49521"
  2372  00ED                     l1823:	
  2373  00ED  3001               	movlw	(01h)
  2374  00EE  00A0               	movwf	(??_uartNumber+0)+0
  2375  00EF  0820               	movf	(??_uartNumber+0)+0,w
  2376  00F0  07AD               	addwf	(uartNumber@i),f
  2377                           opt subtitle "HI-TECH Software Omniscient Code Generator (Lite mode) build 49521"
  2378                           
  2379  00F1                     l1825:	
  2380                           opt subtitle "HI-TECH Software Omniscient Code Generator (Lite mode) build 49521"
  2381  00F1  087A               	movf	(uartNumber@base),w
  2382  00F2  00A0               	movwf	(??_uartNumber+0)+0+0
  2383  00F3  01A1               	clrf	(??_uartNumber+0)+0+1
  2384  00F4  0820               	movf	0+(??_uartNumber+0)+0,w
  2385  00F5  00F0               	movwf	(?___lwdiv)
  2386  00F6  0821               	movf	1+(??_uartNumber+0)+0,w
  2387  00F7  00F1               	movwf	(?___lwdiv+1)
  2388  00F8  0879               	movf	(uartNumber@no+1),w
  2389  00F9  01F3               	clrf	1+(?___lwdiv)+02h
  2390  00FA  07F3               	addwf	1+(?___lwdiv)+02h
  2391  00FB  0878               	movf	(uartNumber@no),w
  2392  00FC  01F2               	clrf	0+(?___lwdiv)+02h
  2393  00FD  07F2               	addwf	0+(?___lwdiv)+02h
  2394                           opt subtitle "HI-TECH Software Omniscient Code Generator (Lite mode) build 49521"
  2395  00FE  120A  158A  259E   	fcall	___lwdiv
              120A  118A         
  2396  0103  0871               	movf	(1+(?___lwdiv)),w
  2397  0104  01F9               	clrf	(uartNumber@no+1)
  2398  0105  07F9               	addwf	(uartNumber@no+1)
  2399  0106  0870               	movf	(0+(?___lwdiv)),w
  2400  0107  01F8               	clrf	(uartNumber@no)
  2401  0108  07F8               	addwf	(uartNumber@no)
  2402                           opt subtitle "HI-TECH Software Omniscient Code Generator (Lite mode) build 49521"
  2403                           
  2404                           opt pagewidth 120
  2405  0109                     l1827:	
  2406                           opt subtitle "HI-TECH Software Omniscient Code Generator (Lite mode) build 49521"
  2407                           
  2408  0109  0879               	movf	((uartNumber@no+1)),w
  2409  010A  0478               	iorwf	((uartNumber@no)),w
  2410  010B  1D03               	skipz
  2411  010C  290E               	goto	u1771
  2412  010D  290F               	goto	u1770
  2413  010E                     u1771:
  2414  010E  28CF               	goto	l1821
  2415  010F                     u1770:
  2416  010F  2910               	goto	l1829
  2417                           opt subtitle "HI-TECH Software Omniscient Code Generator (Lite mode) build 49521"
  2418  0110                     l119:	
  2419                           opt subtitle "HI-TECH Software Omniscient Code Generator (Lite mode) build 49521"
  2420                           
  2421  0110                     l1829:	
  2422                           opt subtitle "HI-TECH Software Omniscient Code Generator (Lite mode) build 49521"
  2423  0110  087B               	movf	(uartNumber@digit),w
  2424  0111  1283               	bcf	status, 5	;RP0=0, select bank0
  2425  0112  1303               	bcf	status, 6	;RP1=0, select bank0
  2426  0113  00A0               	movwf	(??_uartNumber+0)+0
  2427  0114  0820               	movf	(??_uartNumber+0)+0,w
  2428  0115  00AE               	movwf	(uartNumber@j)
  2429                           opt subtitle "HI-TECH Software Omniscient Code Generator (Lite mode) build 49521"
  2430  0116                     l1831:	
  2431  0116  08AE               	movf	(uartNumber@j),f
  2432  0117  1D03               	skipz
  2433  0118  291A               	goto	u1781
  2434  0119  291B               	goto	u1780
  2435  011A                     u1781:
  2436  011A  291D               	goto	l1835
  2437  011B                     u1780:
  2438  011B  294D               	goto	l124
  2439                           opt subtitle "HI-TECH Software Omniscient Code Generator (Lite mode) build 49521"
  2440  011C                     l1833:	
  2441  011C  294D               	goto	l124
  2442                           opt subtitle "HI-TECH Software Omniscient Code Generator (Lite mode) build 49521"
  2443                           
  2444  011D                     l120:	
  2445                           opt subtitle "HI-TECH Software Omniscient Code Generator (Lite mode) build 49521"
  2446                           
  2447  011D                     l1835:	
  2448                           opt subtitle "HI-TECH Software Omniscient Code Generator (Lite mode) build 49521"
  2449                           
  2450  011D  082E               	movf	(uartNumber@j),w
  2451  011E  3EFF               	addlw	0FFh
  2452  011F  3E23               	addlw	uartNumber@di&0ffh
  2453  0120  0084               	movwf	fsr0
  2454  0121  300A               	movlw	(0Ah)
  2455  0122  1383               	bcf	status, 7	;select IRP bank0
  2456  0123  0200               	subwf	indf,w
  2457  0124  1803               	skipnc
  2458  0125  2927               	goto	u1791
  2459  0126  2928               	goto	u1790
  2460  0127                     u1791:
  2461  0127  2934               	goto	l1839
  2462  0128                     u1790:
  2463                           opt subtitle "HI-TECH Software Omniscient Code Generator (Lite mode) build 49521"
  2464  0128                     l1837:	
  2465  0128  082E               	movf	(uartNumber@j),w
  2466  0129  3EFF               	addlw	0FFh
  2467  012A  3E23               	addlw	uartNumber@di&0ffh
  2468  012B  0084               	movwf	fsr0
  2469  012C  0800               	movf	indf,w
  2470  012D  3E30               	addlw	030h
  2471  012E  120A  158A  24A9   	fcall	_uartTransmit
              120A  118A         
  2472  0133  2943               	goto	l1841
  2473                           opt subtitle "HI-TECH Software Omniscient Code Generator (Lite mode) build 49521"
  2474                           
  2475  0134                     l122:	
  2476                           opt subtitle "HI-TECH Software Omniscient Code Generator (Lite mode) build 49521"
  2477  0134                     l1839:	
  2478                           opt subtitle "HI-TECH Software Omniscient Code Generator (Lite mode) build 49521"
  2479  0134  1283               	bcf	status, 5	;RP0=0, select bank0
  2480  0135  1303               	bcf	status, 6	;RP1=0, select bank0
  2481  0136  082E               	movf	(uartNumber@j),w
  2482  0137  3EFF               	addlw	0FFh
  2483  0138  3E23               	addlw	uartNumber@di&0ffh
  2484  0139  0084               	movwf	fsr0
  2485  013A  1383               	bcf	status, 7	;select IRP bank0
  2486  013B  0800               	movf	indf,w
  2487  013C  3E37               	addlw	037h
  2488  013D  120A  158A  24A9   	fcall	_uartTransmit
              120A  118A         
  2489  0142  2943               	goto	l1841
  2490                           opt subtitle "HI-TECH Software Omniscient Code Generator (Lite mode) build 49521"
  2491  0143                     l123:	
  2492                           opt subtitle "HI-TECH Software Omniscient Code Generator (Lite mode) build 49521"
  2493                           
  2494  0143                     l1841:	
  2495  0143  3001               	movlw	low(01h)
  2496  0144  1283               	bcf	status, 5	;RP0=0, select bank0
  2497  0145  1303               	bcf	status, 6	;RP1=0, select bank0
  2498  0146  02AE               	subwf	(uartNumber@j),f
  2499                           opt subtitle "HI-TECH Software Omniscient Code Generator (Lite mode) build 49521"
  2500  0147                     l1843:	
  2501  0147  08AE               	movf	(uartNumber@j),f
  2502  0148  1D03               	skipz
  2503  0149  294B               	goto	u1801
  2504  014A  294C               	goto	u1800
  2505  014B                     u1801:
  2506  014B  291D               	goto	l1835
  2507  014C                     u1800:
  2508  014C  294D               	goto	l124
  2509                           opt subtitle "HI-TECH Software Omniscient Code Generator (Lite mode) build 49521"
  2510  014D                     l121:	
  2511                           opt subtitle "HI-TECH Software Omniscient Code Generator (Lite mode) build 49521"
  2512                           
  2513  014D                     l124:	
  2514  014D  0008               	return
  2515                           opt subtitle "HI-TECH Software Omniscient Code Generator (Lite mode) build 49521"
  2516                           
  2517  014E                     	__end_of_uartNumber:
  2518                           opt subtitle "HI-TECH Software Omniscient Code Generator (Lite mode) build 49521"
  2519                           
  2520                           opt pagewidth 120
  2521                           
  2522                           	opt lm
  2523                           
  2524                           	processor	16F887
  2525                           clrc	macro
  2526                           	bcf	3,0
  2527                           	endm
  2528                           clrz	macro
  2529                           	bcf	3,2
  2530                           	endm
  2531                           setc	macro
  2532                           	bsf	3,0
  2533                           	endm
  2534                           setz	macro
  2535                           	bsf	3,2
  2536                           	endm
  2537                           skipc	macro
  2538                           	btfss	3,0
  2539                           	endm
  2540                           skipz	macro
  2541                           	btfss	3,2
  2542                           	endm
  2543                           skipnc	macro
  2544                           	btfsc	3,0
  2545                           	endm
  2546                           skipnz	macro
  2547                           	btfsc	3,2
  2548                           	endm
  2549                           indf	equ	0
  2550                           indf0	equ	0
  2551                           pc	equ	2
  2552  0CA9                     __ptext449:	;psect for function _uartTransmit
  2553                           opt subtitle "HI-TECH Software Omniscient Code Generator (Lite mode) build 49521"
  2554                           
  2555                           opt pagewidth 120
  2556                           
  2557  000C                     	__size_of_uartTransmit	equ	__end_of_uartTransmit-_uartTransmit
  2558                           opt subtitle "HI-TECH Software Omniscient Code Generator (Lite mode) build 49521"
  2559  0CA9                     _uartTransmit:	
  2560                           opt subtitle "HI-TECH Software Omniscient Code Generator (Lite mode) build 49521"
  2561                           
  2562                           opt pagewidth 120
  2563  0CA9  00F0               	movwf	(uartTransmit@dataTx)
  2564                           opt subtitle "HI-TECH Software Omniscient Code Generator (Lite mode) build 49521"
  2565                           
  2566  0CAA                     l1639:	
  2567                           opt subtitle "HI-TECH Software Omniscient Code Generator (Lite mode) build 49521"
  2568  0CAA  2CAB               	goto	l97
  2569                           opt subtitle "HI-TECH Software Omniscient Code Generator (Lite mode) build 49521"
  2570  0CAB                     l98:	
  2571                           opt subtitle "HI-TECH Software Omniscient Code Generator (Lite mode) build 49521"
  2572  0CAB                     l97:	
  2573  0CAB  1283               	bcf	status, 5	;RP0=0, select bank0
  2574  0CAC  1303               	bcf	status, 6	;RP1=0, select bank0
  2575  0CAD  1E0C               	btfss	(100/8),(100)&7	;volatile
  2576  0CAE  2CB0               	goto	u1311
  2577  0CAF  2CB1               	goto	u1310
  2578  0CB0                     u1311:
  2579  0CB0  2CAB               	goto	l97
  2580  0CB1                     u1310:
  2581  0CB1  2CB2               	goto	l1641
  2582                           opt subtitle "HI-TECH Software Omniscient Code Generator (Lite mode) build 49521"
  2583  0CB2                     l99:	
  2584                           opt subtitle "HI-TECH Software Omniscient Code Generator (Lite mode) build 49521"
  2585                           
  2586  0CB2                     l1641:	
  2587                           opt subtitle "HI-TECH Software Omniscient Code Generator (Lite mode) build 49521"
  2588  0CB2  0870               	movf	(uartTransmit@dataTx),w
  2589  0CB3  0099               	movwf	(25)	;volatile
  2590                           opt subtitle "HI-TECH Software Omniscient Code Generator (Lite mode) build 49521"
  2591                           
  2592  0CB4                     l100:	
  2593  0CB4  0008               	return
  2594                           opt subtitle "HI-TECH Software Omniscient Code Generator (Lite mode) build 49521"
  2595                           
  2596  0CB5                     	__end_of_uartTransmit:
  2597                           opt subtitle "HI-TECH Software Omniscient Code Generator (Lite mode) build 49521"
  2598                           
  2599                           opt pagewidth 120
  2600                           
  2601                           	opt lm
  2602                           
  2603                           	processor	16F887
  2604                           clrc	macro
  2605                           	bcf	3,0
  2606                           	endm
  2607                           clrz	macro
  2608                           	bcf	3,2
  2609                           	endm
  2610                           setc	macro
  2611                           	bsf	3,0
  2612                           	endm
  2613                           setz	macro
  2614                           	bsf	3,2
  2615                           	endm
  2616                           skipc	macro
  2617                           	btfss	3,0
  2618                           	endm
  2619                           skipz	macro
  2620                           	btfss	3,2
  2621                           	endm
  2622                           skipnc	macro
  2623                           	btfsc	3,0
  2624                           	endm
  2625                           skipnz	macro
  2626                           	btfsc	3,2
  2627                           	endm
  2628                           indf	equ	0
  2629                           indf0	equ	0
  2630  0CDF                     __ptext450:	;psect for function _picInit
  2631                           opt subtitle "HI-TECH Software Omniscient Code Generator (Lite mode) build 49521"
  2632                           
  2633                           opt pagewidth 120
  2634                           
  2635  001A                     	__size_of_picInit	equ	__end_of_picInit-_picInit
  2636                           opt subtitle "HI-TECH Software Omniscient Code Generator (Lite mode) build 49521"
  2637  0CDF                     _picInit:	
  2638                           opt subtitle "HI-TECH Software Omniscient Code Generator (Lite mode) build 49521"
  2639                           
  2640                           opt pagewidth 120
  2641                           
  2642  0CDF                     l1651:	
  2643                           opt subtitle "HI-TECH Software Omniscient Code Generator (Lite mode) build 49521"
  2644  0CDF  1683               	bsf	status, 5	;RP0=1, select bank1
  2645  0CE0  1303               	bcf	status, 6	;RP1=0, select bank1
  2646  0CE1  170F               	bsf	(1150/8)^080h,(1150)&7	;volatile
  2647                           opt subtitle "HI-TECH Software Omniscient Code Generator (Lite mode) build 49521"
  2648                           
  2649  0CE2  168F               	bsf	(1149/8)^080h,(1149)&7	;volatile
  2650                           opt subtitle "HI-TECH Software Omniscient Code Generator (Lite mode) build 49521"
  2651                           
  2652  0CE3  160F               	bsf	(1148/8)^080h,(1148)&7	;volatile
  2653                           opt subtitle "HI-TECH Software Omniscient Code Generator (Lite mode) build 49521"
  2654                           
  2655  0CE4                     l1653:	
  2656                           opt subtitle "HI-TECH Software Omniscient Code Generator (Lite mode) build 49521"
  2657  0CE4  1683               	bsf	status, 5	;RP0=1, select bank3
  2658  0CE5  1703               	bsf	status, 6	;RP1=1, select bank3
  2659  0CE6  0188               	clrf	(392)^0180h	;volatile
  2660                           opt subtitle "HI-TECH Software Omniscient Code Generator (Lite mode) build 49521"
  2661                           
  2662  0CE7  0189               	clrf	(393)^0180h	;volatile
  2663                           opt subtitle "HI-TECH Software Omniscient Code Generator (Lite mode) build 49521"
  2664                           
  2665  0CE8  1283               	bcf	status, 5	;RP0=0, select bank0
  2666  0CE9  1303               	bcf	status, 6	;RP1=0, select bank0
  2667  0CEA  0185               	clrf	(5)	;volatile
  2668                           opt subtitle "HI-TECH Software Omniscient Code Generator (Lite mode) build 49521"
  2669                           
  2670  0CEB  0186               	clrf	(6)	;volatile
  2671                           opt subtitle "HI-TECH Software Omniscient Code Generator (Lite mode) build 49521"
  2672                           
  2673  0CEC  0187               	clrf	(7)	;volatile
  2674                           opt subtitle "HI-TECH Software Omniscient Code Generator (Lite mode) build 49521"
  2675                           
  2676  0CED  0188               	clrf	(8)	;volatile
  2677                           opt subtitle "HI-TECH Software Omniscient Code Generator (Lite mode) build 49521"
  2678                           
  2679  0CEE  0189               	clrf	(9)	;volatile
  2680                           opt subtitle "HI-TECH Software Omniscient Code Generator (Lite mode) build 49521"
  2681                           
  2682  0CEF  1683               	bsf	status, 5	;RP0=1, select bank1
  2683  0CF0  1303               	bcf	status, 6	;RP1=0, select bank1
  2684  0CF1  0185               	clrf	(133)^080h	;volatile
  2685                           opt subtitle "HI-TECH Software Omniscient Code Generator (Lite mode) build 49521"
  2686                           
  2687  0CF2                     l1655:	
  2688                           opt subtitle "HI-TECH Software Omniscient Code Generator (Lite mode) build 49521"
  2689  0CF2  3003               	movlw	(03h)
  2690  0CF3  0086               	movwf	(134)^080h	;volatile
  2691                           opt subtitle "HI-TECH Software Omniscient Code Generator (Lite mode) build 49521"
  2692                           
  2693  0CF4                     l1657:	
  2694                           opt subtitle "HI-TECH Software Omniscient Code Generator (Lite mode) build 49521"
  2695  0CF4  3080               	movlw	(080h)
  2696  0CF5  0087               	movwf	(135)^080h	;volatile
  2697                           opt subtitle "HI-TECH Software Omniscient Code Generator (Lite mode) build 49521"
  2698                           
  2699  0CF6  0188               	clrf	(136)^080h	;volatile
  2700                           opt subtitle "HI-TECH Software Omniscient Code Generator (Lite mode) build 49521"
  2701                           
  2702  0CF7  0189               	clrf	(137)^080h	;volatile
  2703                           opt subtitle "HI-TECH Software Omniscient Code Generator (Lite mode) build 49521"
  2704                           
  2705  0CF8                     l160:	
  2706  0CF8  0008               	return
  2707                           opt subtitle "HI-TECH Software Omniscient Code Generator (Lite mode) build 49521"
  2708                           
  2709  0CF9                     	__end_of_picInit:
  2710                           opt subtitle "HI-TECH Software Omniscient Code Generator (Lite mode) build 49521"
  2711                           
  2712                           opt pagewidth 120
  2713                           
  2714                           	opt lm
  2715                           
  2716                           	processor	16F887
  2717                           clrc	macro
  2718                           	bcf	3,0
  2719                           	endm
  2720                           clrz	macro
  2721                           	bcf	3,2
  2722                           	endm
  2723                           setc	macro
  2724                           	bsf	3,0
  2725                           	endm
  2726                           setz	macro
  2727                           	bsf	3,2
  2728                           	endm
  2729                           skipc	macro
  2730                           	btfss	3,0
  2731                           	endm
  2732                           skipz	macro
  2733                           	btfss	3,2
  2734                           	endm
  2735                           skipnc	macro
  2736                           	btfsc	3,0
  2737                           	endm
  2738                           skipnz	macro
  2739                           	btfsc	3,2
  2740                           	endm
  2741                           indf	equ	0
  2742                           indf0	equ	0
  2743                           pc	equ	2
  2744                           pcl	equ	2
  2745  0DEB                     __ptext451:	;psect for function _beep
  2746                           opt subtitle "HI-TECH Software Omniscient Code Generator (Lite mode) build 49521"
  2747                           
  2748                           opt pagewidth 120
  2749                           
  2750  0050                     	__size_of_beep	equ	__end_of_beep-_beep
  2751                           opt subtitle "HI-TECH Software Omniscient Code Generator (Lite mode) build 49521"
  2752  0DEB                     _beep:	
  2753                           opt subtitle "HI-TECH Software Omniscient Code Generator (Lite mode) build 49521"
  2754                           
  2755                           opt pagewidth 120
  2756                           
  2757  0DEB  00F4               	movwf	(beep@times)
  2758                           opt subtitle "HI-TECH Software Omniscient Code Generator (Lite mode) build 49521"
  2759  0DEC                     l1845:	
  2760                           opt subtitle "HI-TECH Software Omniscient Code Generator (Lite mode) build 49521"
  2761                           
  2762  0DEC  08F4               	movf	(beep@times),f
  2763  0DED  1D03               	skipz
  2764  0DEE  2DF0               	goto	u1811
  2765  0DEF  2DF1               	goto	u1810
  2766  0DF0                     u1811:
  2767  0DF0  2DF3               	goto	l163
  2768  0DF1                     u1810:
  2769  0DF1  2E3A               	goto	l171
  2770                           opt subtitle "HI-TECH Software Omniscient Code Generator (Lite mode) build 49521"
  2771  0DF2                     l1847:	
  2772  0DF2  2E3A               	goto	l171
  2773                           opt subtitle "HI-TECH Software Omniscient Code Generator (Lite mode) build 49521"
  2774                           
  2775  0DF3                     l163:	
  2776                           opt subtitle "HI-TECH Software Omniscient Code Generator (Lite mode) build 49521"
  2777                           
  2778                           opt pagewidth 120
  2779  0DF3  1283               	bcf	status, 5	;RP0=0, select bank0
  2780  0DF4  1303               	bcf	status, 6	;RP1=0, select bank0
  2781  0DF5  1786               	bsf	(55/8),(55)&7	;volatile
  2782                           opt subtitle "HI-TECH Software Omniscient Code Generator (Lite mode) build 49521"
  2783                           
  2784  0DF6                     l1849:	
  2785                           opt subtitle "HI-TECH Software Omniscient Code Generator (Lite mode) build 49521"
  2786  0DF6  01F5               	clrf	(beep@loop)
  2787  0DF7  01F6               	clrf	(beep@loop+1)
  2788  0DF8  2E08               	goto	l165
  2789                           opt subtitle "HI-TECH Software Omniscient Code Generator (Lite mode) build 49521"
  2790  0DF9                     l166:	
  2791                           opt subtitle "HI-TECH Software Omniscient Code Generator (Lite mode) build 49521"
  2792  0DF9                     l1851:	
  2793                           opt subtitle "HI-TECH Software Omniscient Code Generator (Lite mode) build 49521"
  2794  0DF9  3003               movlw	3
  2795  0DFA  00F3               movwf	((??_beep+0)+0+1),f
  2796  0DFB  3097               	movlw	151
  2797  0DFC  00F2               movwf	((??_beep+0)+0),f
  2798  0DFD                     u2677:
  2799  0DFD  0BF2               	decfsz	((??_beep+0)+0),f
  2800  0DFE  2DFD               	goto	u2677
  2801  0DFF  0BF3               	decfsz	((??_beep+0)+0+1),f
  2802  0E00  2DFD               	goto	u2677
  2803  0E01  2E02               	nop2
  2804                           opt subtitle "HI-TECH Software Omniscient Code Generator (Lite mode) build 49521"
  2805                           
  2806  0E02  3001               	movlw	low(01h)
  2807  0E03  07F5               	addwf	(beep@loop),f
  2808  0E04  1803               	skipnc
  2809  0E05  0AF6               	incf	(beep@loop+1),f
  2810  0E06  3000               	movlw	high(01h)
  2811  0E07  07F6               	addwf	(beep@loop+1),f
  2812                           opt subtitle "HI-TECH Software Omniscient Code Generator (Lite mode) build 49521"
  2813  0E08                     l165:	
  2814  0E08  0871               	movf	(beep@delayMs+1),w
  2815  0E09  0276               	subwf	(beep@loop+1),w
  2816  0E0A  1D03               	skipz
  2817  0E0B  2E0E               	goto	u1825
  2818  0E0C  0870               	movf	(beep@delayMs),w
  2819  0E0D  0275               	subwf	(beep@loop),w
  2820  0E0E                     u1825:
  2821  0E0E  1C03               	skipc
  2822  0E0F  2E11               	goto	u1821
  2823  0E10  2E12               	goto	u1820
  2824  0E11                     u1821:
  2825  0E11  2DF9               	goto	l1851
  2826  0E12                     u1820:
  2827                           opt subtitle "HI-TECH Software Omniscient Code Generator (Lite mode) build 49521"
  2828  0E12                     l167:	
  2829                           opt subtitle "HI-TECH Software Omniscient Code Generator (Lite mode) build 49521"
  2830                           
  2831  0E12  1283               	bcf	status, 5	;RP0=0, select bank0
  2832  0E13  1303               	bcf	status, 6	;RP1=0, select bank0
  2833  0E14  1386               	bcf	(55/8),(55)&7	;volatile
  2834                           opt subtitle "HI-TECH Software Omniscient Code Generator (Lite mode) build 49521"
  2835                           
  2836  0E15                     l1853:	
  2837                           opt subtitle "HI-TECH Software Omniscient Code Generator (Lite mode) build 49521"
  2838  0E15  01F5               	clrf	(beep@loop)
  2839  0E16  01F6               	clrf	(beep@loop+1)
  2840  0E17  2E27               	goto	l168
  2841                           opt subtitle "HI-TECH Software Omniscient Code Generator (Lite mode) build 49521"
  2842  0E18                     l169:	
  2843                           opt subtitle "HI-TECH Software Omniscient Code Generator (Lite mode) build 49521"
  2844  0E18                     l1855:	
  2845                           opt subtitle "HI-TECH Software Omniscient Code Generator (Lite mode) build 49521"
  2846  0E18  3003               movlw	3
  2847  0E19  00F3               movwf	((??_beep+0)+0+1),f
  2848  0E1A  3097               	movlw	151
  2849  0E1B  00F2               movwf	((??_beep+0)+0),f
  2850  0E1C                     u2687:
  2851  0E1C  0BF2               	decfsz	((??_beep+0)+0),f
  2852  0E1D  2E1C               	goto	u2687
  2853  0E1E  0BF3               	decfsz	((??_beep+0)+0+1),f
  2854  0E1F  2E1C               	goto	u2687
  2855  0E20  2E21               	nop2
  2856                           opt subtitle "HI-TECH Software Omniscient Code Generator (Lite mode) build 49521"
  2857                           
  2858  0E21  3001               	movlw	low(01h)
  2859  0E22  07F5               	addwf	(beep@loop),f
  2860  0E23  1803               	skipnc
  2861  0E24  0AF6               	incf	(beep@loop+1),f
  2862  0E25  3000               	movlw	high(01h)
  2863  0E26  07F6               	addwf	(beep@loop+1),f
  2864                           opt subtitle "HI-TECH Software Omniscient Code Generator (Lite mode) build 49521"
  2865  0E27                     l168:	
  2866  0E27  0871               	movf	(beep@delayMs+1),w
  2867  0E28  0276               	subwf	(beep@loop+1),w
  2868  0E29  1D03               	skipz
  2869  0E2A  2E2D               	goto	u1835
  2870  0E2B  0870               	movf	(beep@delayMs),w
  2871  0E2C  0275               	subwf	(beep@loop),w
  2872  0E2D                     u1835:
  2873  0E2D  1C03               	skipc
  2874  0E2E  2E30               	goto	u1831
  2875  0E2F  2E31               	goto	u1830
  2876  0E30                     u1831:
  2877  0E30  2E18               	goto	l1855
  2878  0E31                     u1830:
  2879  0E31  2E32               	goto	l1857
  2880                           opt subtitle "HI-TECH Software Omniscient Code Generator (Lite mode) build 49521"
  2881  0E32                     l170:	
  2882                           opt subtitle "HI-TECH Software Omniscient Code Generator (Lite mode) build 49521"
  2883                           
  2884  0E32                     l1857:	
  2885  0E32  3001               	movlw	low(01h)
  2886  0E33  02F4               	subwf	(beep@times),f
  2887                           opt subtitle "HI-TECH Software Omniscient Code Generator (Lite mode) build 49521"
  2888  0E34                     l1859:	
  2889  0E34  08F4               	movf	(beep@times),f
  2890  0E35  1D03               	skipz
  2891  0E36  2E38               	goto	u1841
  2892  0E37  2E39               	goto	u1840
  2893  0E38                     u1841:
  2894  0E38  2DF3               	goto	l163
  2895  0E39                     u1840:
  2896  0E39  2E3A               	goto	l171
  2897                           opt subtitle "HI-TECH Software Omniscient Code Generator (Lite mode) build 49521"
  2898  0E3A                     l164:	
  2899                           opt subtitle "HI-TECH Software Omniscient Code Generator (Lite mode) build 49521"
  2900                           
  2901  0E3A                     l171:	
  2902  0E3A  0008               	return
  2903                           opt subtitle "HI-TECH Software Omniscient Code Generator (Lite mode) build 49521"
  2904                           
  2905  0E3B                     	__end_of_beep:
  2906                           opt subtitle "HI-TECH Software Omniscient Code Generator (Lite mode) build 49521"
  2907                           
  2908                           opt pagewidth 120
  2909                           
  2910                           	opt lm
  2911                           
  2912                           	processor	16F887
  2913                           clrc	macro
  2914                           	bcf	3,0
  2915                           	endm
  2916                           clrz	macro
  2917                           	bcf	3,2
  2918                           	endm
  2919                           setc	macro
  2920                           	bsf	3,0
  2921                           	endm
  2922                           setz	macro
  2923                           	bsf	3,2
  2924                           	endm
  2925                           skipc	macro
  2926                           	btfss	3,0
  2927                           	endm
  2928                           skipz	macro
  2929                           	btfss	3,2
  2930                           	endm
  2931                           skipnc	macro
  2932                           	btfsc	3,0
  2933                           	endm
  2934                           skipnz	macro
  2935                           	btfsc	3,2
  2936                           	endm
  2937                           indf	equ	0
  2938                           indf0	equ	0
  2939                           pc	equ	2
  2940                           pcl	equ	2
  2941                           status	equ	3
  2942                           fsr	equ	4
  2943                           fsr0	equ	4
  2944                           c	equ	1
  2945  014E                     __ptext452:	;psect for function _motor
  2946                           opt subtitle "HI-TECH Software Omniscient Code Generator (Lite mode) build 49521"
  2947                           
  2948                           opt pagewidth 120
  2949                           
  2950  00A2                     	__size_of_motor	equ	__end_of_motor-_motor
  2951                           opt subtitle "HI-TECH Software Omniscient Code Generator (Lite mode) build 49521"
  2952  014E                     _motor:	
  2953                           opt subtitle "HI-TECH Software Omniscient Code Generator (Lite mode) build 49521"
  2954                           
  2955                           opt pagewidth 120
  2956  014E  1283               	bcf	status, 5	;RP0=0, select bank0
  2957  014F  1303               	bcf	status, 6	;RP1=0, select bank0
  2958  0150  00AE               	movwf	(motor@speedLM)
  2959                           opt subtitle "HI-TECH Software Omniscient Code Generator (Lite mode) build 49521"
  2960                           
  2961  0151                     l2019:	
  2962                           opt subtitle "HI-TECH Software Omniscient Code Generator (Lite mode) build 49521"
  2963  0151  3050               	movlw	(050h)
  2964  0152  00AB               	movwf	(??_motor+0)+0
  2965  0153  082B               	movf	(??_motor+0)+0,w
  2966  0154  00AD               	movwf	(motor@maxSpeed)
  2967                           opt subtitle "HI-TECH Software Omniscient Code Generator (Lite mode) build 49521"
  2968                           
  2969  0155                     l2021:	
  2970                           opt subtitle "HI-TECH Software Omniscient Code Generator (Lite mode) build 49521"
  2971  0155  1FAE               	btfss	(motor@speedLM),7
  2972  0156  2958               	goto	u2171
  2973  0157  2959               	goto	u2170
  2974  0158                     u2171:
  2975  0158  296B               	goto	l2027
  2976  0159                     u2170:
  2977                           opt subtitle "HI-TECH Software Omniscient Code Generator (Lite mode) build 49521"
  2978                           
  2979  0159                     l2023:	
  2980                           opt subtitle "HI-TECH Software Omniscient Code Generator (Lite mode) build 49521"
  2981                           
  2982  0159  1606               	bsf	(52/8),(52)&7	;volatile
  2983                           opt subtitle "HI-TECH Software Omniscient Code Generator (Lite mode) build 49521"
  2984                           
  2985  015A  1286               	bcf	(53/8),(53)&7	;volatile
  2986                           opt subtitle "HI-TECH Software Omniscient Code Generator (Lite mode) build 49521"
  2987                           
  2988  015B                     l2025:	
  2989                           opt subtitle "HI-TECH Software Omniscient Code Generator (Lite mode) build 49521"
  2990  015B  30FF               	movlw	(0FFh)
  2991  015C  00AB               	movwf	(??_motor+0)+0
  2992  015D  082B               	movf	(??_motor+0)+0,w
  2993  015E  00F0               	movwf	(?___bmul)
  2994  015F  082E               	movf	(motor@speedLM),w
  2995  0160  120A  158A  24C7   	fcall	___bmul
              120A  118A         
  2996  0165  1283               	bcf	status, 5	;RP0=0, select bank0
  2997  0166  1303               	bcf	status, 6	;RP1=0, select bank0
  2998  0167  00AC               	movwf	(??_motor+1)+0
  2999  0168  082C               	movf	(??_motor+1)+0,w
  3000  0169  00AF               	movwf	(motor@speed)
  3001                           opt subtitle "HI-TECH Software Omniscient Code Generator (Lite mode) build 49521"
  3002                           
  3003  016A  2986               	goto	l175
  3004                           opt subtitle "HI-TECH Software Omniscient Code Generator (Lite mode) build 49521"
  3005                           
  3006  016B                     l174:	
  3007                           opt subtitle "HI-TECH Software Omniscient Code Generator (Lite mode) build 49521"
  3008  016B                     l2027:	
  3009                           opt subtitle "HI-TECH Software Omniscient Code Generator (Lite mode) build 49521"
  3010  016B  082E               	movf	(motor@speedLM),w
  3011  016C  3A80               	xorlw	80h
  3012  016D  3E7F               	addlw	-((01h)^80h)
  3013  016E  1C03               	skipc
  3014  016F  2971               	goto	u2181
  3015  0170  2972               	goto	u2180
  3016  0171                     u2181:
  3017  0171  2979               	goto	l2033
  3018  0172                     u2180:
  3019                           opt subtitle "HI-TECH Software Omniscient Code Generator (Lite mode) build 49521"
  3020                           
  3021  0172                     l2029:	
  3022                           opt subtitle "HI-TECH Software Omniscient Code Generator (Lite mode) build 49521"
  3023                           
  3024  0172  1206               	bcf	(52/8),(52)&7	;volatile
  3025                           opt subtitle "HI-TECH Software Omniscient Code Generator (Lite mode) build 49521"
  3026                           
  3027  0173  1686               	bsf	(53/8),(53)&7	;volatile
  3028                           opt subtitle "HI-TECH Software Omniscient Code Generator (Lite mode) build 49521"
  3029                           
  3030  0174                     l2031:	
  3031                           opt subtitle "HI-TECH Software Omniscient Code Generator (Lite mode) build 49521"
  3032  0174  082E               	movf	(motor@speedLM),w
  3033  0175  00AB               	movwf	(??_motor+0)+0
  3034  0176  082B               	movf	(??_motor+0)+0,w
  3035  0177  00AF               	movwf	(motor@speed)
  3036                           opt subtitle "HI-TECH Software Omniscient Code Generator (Lite mode) build 49521"
  3037                           
  3038  0178  2986               	goto	l175
  3039                           opt subtitle "HI-TECH Software Omniscient Code Generator (Lite mode) build 49521"
  3040                           
  3041  0179                     l176:	
  3042                           opt subtitle "HI-TECH Software Omniscient Code Generator (Lite mode) build 49521"
  3043  0179                     l2033:	
  3044                           opt subtitle "HI-TECH Software Omniscient Code Generator (Lite mode) build 49521"
  3045  0179  08AE               	movf	(motor@speedLM),f
  3046  017A  1D03               	skipz
  3047  017B  297D               	goto	u2191
  3048  017C  297E               	goto	u2190
  3049  017D                     u2191:
  3050  017D  2986               	goto	l175
  3051  017E                     u2190:
  3052                           opt subtitle "HI-TECH Software Omniscient Code Generator (Lite mode) build 49521"
  3053                           
  3054  017E                     l2035:	
  3055                           opt subtitle "HI-TECH Software Omniscient Code Generator (Lite mode) build 49521"
  3056                           
  3057  017E  1206               	bcf	(52/8),(52)&7	;volatile
  3058                           opt subtitle "HI-TECH Software Omniscient Code Generator (Lite mode) build 49521"
  3059                           
  3060  017F  1286               	bcf	(53/8),(53)&7	;volatile
  3061                           opt subtitle "HI-TECH Software Omniscient Code Generator (Lite mode) build 49521"
  3062                           
  3063  0180                     l2037:	
  3064                           opt subtitle "HI-TECH Software Omniscient Code Generator (Lite mode) build 49521"
  3065  0180  082E               	movf	(motor@speedLM),w
  3066  0181  00AB               	movwf	(??_motor+0)+0
  3067  0182  082B               	movf	(??_motor+0)+0,w
  3068  0183  00AF               	movwf	(motor@speed)
  3069  0184  2986               	goto	l175
  3070                           opt subtitle "HI-TECH Software Omniscient Code Generator (Lite mode) build 49521"
  3071                           
  3072  0185                     l178:	
  3073  0185  2986               	goto	l175
  3074                           opt subtitle "HI-TECH Software Omniscient Code Generator (Lite mode) build 49521"
  3075                           
  3076  0186                     l177:	
  3077                           opt subtitle "HI-TECH Software Omniscient Code Generator (Lite mode) build 49521"
  3078  0186                     l175:	
  3079                           opt subtitle "HI-TECH Software Omniscient Code Generator (Lite mode) build 49521"
  3080                           
  3081  0186  082F               	movf	(motor@speed),w
  3082  0187  022D               	subwf	(motor@maxSpeed),w
  3083  0188  1803               	skipnc
  3084  0189  298B               	goto	u2201
  3085  018A  298C               	goto	u2200
  3086  018B                     u2201:
  3087  018B  2991               	goto	l2041
  3088  018C                     u2200:
  3089                           opt subtitle "HI-TECH Software Omniscient Code Generator (Lite mode) build 49521"
  3090  018C                     l2039:	
  3091  018C  082D               	movf	(motor@maxSpeed),w
  3092  018D  00AB               	movwf	(??_motor+0)+0
  3093  018E  082B               	movf	(??_motor+0)+0,w
  3094  018F  00AF               	movwf	(motor@speed)
  3095  0190  2991               	goto	l2041
  3096                           opt subtitle "HI-TECH Software Omniscient Code Generator (Lite mode) build 49521"
  3097  0191                     l179:	
  3098                           opt subtitle "HI-TECH Software Omniscient Code Generator (Lite mode) build 49521"
  3099                           
  3100  0191                     l2041:	
  3101                           opt subtitle "HI-TECH Software Omniscient Code Generator (Lite mode) build 49521"
  3102  0191  30E8               	movlw	low(03E8h)
  3103  0192  00A6               	movwf	(?_setPwmRC1)
  3104  0193  3003               	movlw	high(03E8h)
  3105  0194  00A7               	movwf	((?_setPwmRC1))+1
  3106  0195  082F               	movf	(motor@speed),w
  3107  0196  00AB               	movwf	(??_motor+0)+0+0
  3108  0197  01AC               	clrf	(??_motor+0)+0+1
  3109  0198  082B               	movf	0+(??_motor+0)+0,w
  3110  0199  00A8               	movwf	0+(?_setPwmRC1)+02h
  3111  019A  082C               	movf	1+(??_motor+0)+0,w
  3112  019B  00A9               	movwf	1+(?_setPwmRC1)+02h
  3113  019C  120A  158A  26A6   	fcall	_setPwmRC1
              120A  118A         
  3114                           opt subtitle "HI-TECH Software Omniscient Code Generator (Lite mode) build 49521"
  3115                           
  3116  01A1                     l2043:	
  3117                           opt subtitle "HI-TECH Software Omniscient Code Generator (Lite mode) build 49521"
  3118  01A1  1283               	bcf	status, 5	;RP0=0, select bank0
  3119  01A2  1303               	bcf	status, 6	;RP1=0, select bank0
  3120  01A3  1FAA               	btfss	(motor@speedRM),7
  3121  01A4  29A6               	goto	u2211
  3122  01A5  29A7               	goto	u2210
  3123  01A6                     u2211:
  3124  01A6  29B9               	goto	l2049
  3125  01A7                     u2210:
  3126                           opt subtitle "HI-TECH Software Omniscient Code Generator (Lite mode) build 49521"
  3127                           
  3128  01A7                     l2045:	
  3129                           opt subtitle "HI-TECH Software Omniscient Code Generator (Lite mode) build 49521"
  3130                           
  3131  01A7  1506               	bsf	(50/8),(50)&7	;volatile
  3132                           opt subtitle "HI-TECH Software Omniscient Code Generator (Lite mode) build 49521"
  3133                           
  3134  01A8  1186               	bcf	(51/8),(51)&7	;volatile
  3135                           opt subtitle "HI-TECH Software Omniscient Code Generator (Lite mode) build 49521"
  3136                           
  3137  01A9                     l2047:	
  3138                           opt subtitle "HI-TECH Software Omniscient Code Generator (Lite mode) build 49521"
  3139  01A9  30FF               	movlw	(0FFh)
  3140  01AA  00AB               	movwf	(??_motor+0)+0
  3141  01AB  082B               	movf	(??_motor+0)+0,w
  3142  01AC  00F0               	movwf	(?___bmul)
  3143  01AD  082A               	movf	(motor@speedRM),w
  3144  01AE  120A  158A  24C7   	fcall	___bmul
              120A  118A         
  3145  01B3  1283               	bcf	status, 5	;RP0=0, select bank0
  3146  01B4  1303               	bcf	status, 6	;RP1=0, select bank0
  3147  01B5  00AC               	movwf	(??_motor+1)+0
  3148  01B6  082C               	movf	(??_motor+1)+0,w
  3149  01B7  00AF               	movwf	(motor@speed)
  3150                           opt subtitle "HI-TECH Software Omniscient Code Generator (Lite mode) build 49521"
  3151                           
  3152  01B8  29D4               	goto	l181
  3153                           opt subtitle "HI-TECH Software Omniscient Code Generator (Lite mode) build 49521"
  3154                           
  3155  01B9                     l180:	
  3156                           opt subtitle "HI-TECH Software Omniscient Code Generator (Lite mode) build 49521"
  3157  01B9                     l2049:	
  3158                           opt subtitle "HI-TECH Software Omniscient Code Generator (Lite mode) build 49521"
  3159  01B9  082A               	movf	(motor@speedRM),w
  3160  01BA  3A80               	xorlw	80h
  3161  01BB  3E7F               	addlw	-((01h)^80h)
  3162  01BC  1C03               	skipc
  3163  01BD  29BF               	goto	u2221
  3164  01BE  29C0               	goto	u2220
  3165  01BF                     u2221:
  3166  01BF  29C7               	goto	l2055
  3167  01C0                     u2220:
  3168                           opt subtitle "HI-TECH Software Omniscient Code Generator (Lite mode) build 49521"
  3169                           
  3170  01C0                     l2051:	
  3171                           opt subtitle "HI-TECH Software Omniscient Code Generator (Lite mode) build 49521"
  3172                           
  3173  01C0  1106               	bcf	(50/8),(50)&7	;volatile
  3174                           opt subtitle "HI-TECH Software Omniscient Code Generator (Lite mode) build 49521"
  3175                           
  3176  01C1  1586               	bsf	(51/8),(51)&7	;volatile
  3177                           opt subtitle "HI-TECH Software Omniscient Code Generator (Lite mode) build 49521"
  3178                           
  3179  01C2                     l2053:	
  3180                           opt subtitle "HI-TECH Software Omniscient Code Generator (Lite mode) build 49521"
  3181  01C2  082A               	movf	(motor@speedRM),w
  3182  01C3  00AB               	movwf	(??_motor+0)+0
  3183  01C4  082B               	movf	(??_motor+0)+0,w
  3184  01C5  00AF               	movwf	(motor@speed)
  3185                           opt subtitle "HI-TECH Software Omniscient Code Generator (Lite mode) build 49521"
  3186                           
  3187  01C6  29D4               	goto	l181
  3188                           opt subtitle "HI-TECH Software Omniscient Code Generator (Lite mode) build 49521"
  3189                           
  3190  01C7                     l182:	
  3191                           opt subtitle "HI-TECH Software Omniscient Code Generator (Lite mode) build 49521"
  3192  01C7                     l2055:	
  3193                           opt subtitle "HI-TECH Software Omniscient Code Generator (Lite mode) build 49521"
  3194  01C7  08AA               	movf	(motor@speedRM),f
  3195  01C8  1D03               	skipz
  3196  01C9  29CB               	goto	u2231
  3197  01CA  29CC               	goto	u2230
  3198  01CB                     u2231:
  3199  01CB  29D4               	goto	l181
  3200  01CC                     u2230:
  3201                           opt subtitle "HI-TECH Software Omniscient Code Generator (Lite mode) build 49521"
  3202                           
  3203  01CC                     l2057:	
  3204                           opt subtitle "HI-TECH Software Omniscient Code Generator (Lite mode) build 49521"
  3205                           
  3206  01CC  1106               	bcf	(50/8),(50)&7	;volatile
  3207                           opt subtitle "HI-TECH Software Omniscient Code Generator (Lite mode) build 49521"
  3208                           
  3209  01CD  1186               	bcf	(51/8),(51)&7	;volatile
  3210                           opt subtitle "HI-TECH Software Omniscient Code Generator (Lite mode) build 49521"
  3211                           
  3212  01CE                     l2059:	
  3213                           opt subtitle "HI-TECH Software Omniscient Code Generator (Lite mode) build 49521"
  3214  01CE  082A               	movf	(motor@speedRM),w
  3215  01CF  00AB               	movwf	(??_motor+0)+0
  3216  01D0  082B               	movf	(??_motor+0)+0,w
  3217  01D1  00AF               	movwf	(motor@speed)
  3218  01D2  29D4               	goto	l181
  3219                           opt subtitle "HI-TECH Software Omniscient Code Generator (Lite mode) build 49521"
  3220                           
  3221  01D3                     l184:	
  3222  01D3  29D4               	goto	l181
  3223                           opt subtitle "HI-TECH Software Omniscient Code Generator (Lite mode) build 49521"
  3224                           
  3225  01D4                     l183:	
  3226                           opt subtitle "HI-TECH Software Omniscient Code Generator (Lite mode) build 49521"
  3227  01D4                     l181:	
  3228                           opt subtitle "HI-TECH Software Omniscient Code Generator (Lite mode) build 49521"
  3229                           
  3230  01D4  082F               	movf	(motor@speed),w
  3231  01D5  022D               	subwf	(motor@maxSpeed),w
  3232  01D6  1803               	skipnc
  3233  01D7  29D9               	goto	u2241
  3234  01D8  29DA               	goto	u2240
  3235  01D9                     u2241:
  3236  01D9  29DF               	goto	l2063
  3237  01DA                     u2240:
  3238                           opt subtitle "HI-TECH Software Omniscient Code Generator (Lite mode) build 49521"
  3239  01DA                     l2061:	
  3240  01DA  082D               	movf	(motor@maxSpeed),w
  3241  01DB  00AB               	movwf	(??_motor+0)+0
  3242  01DC  082B               	movf	(??_motor+0)+0,w
  3243  01DD  00AF               	movwf	(motor@speed)
  3244  01DE  29DF               	goto	l2063
  3245                           opt subtitle "HI-TECH Software Omniscient Code Generator (Lite mode) build 49521"
  3246  01DF                     l185:	
  3247                           opt subtitle "HI-TECH Software Omniscient Code Generator (Lite mode) build 49521"
  3248                           
  3249  01DF                     l2063:	
  3250                           opt subtitle "HI-TECH Software Omniscient Code Generator (Lite mode) build 49521"
  3251  01DF  30E8               	movlw	low(03E8h)
  3252  01E0  00A6               	movwf	(?_setPwmRC2)
  3253  01E1  3003               	movlw	high(03E8h)
  3254  01E2  00A7               	movwf	((?_setPwmRC2))+1
  3255  01E3  082F               	movf	(motor@speed),w
  3256  01E4  00AB               	movwf	(??_motor+0)+0+0
  3257  01E5  01AC               	clrf	(??_motor+0)+0+1
  3258  01E6  082B               	movf	0+(??_motor+0)+0,w
  3259  01E7  00A8               	movwf	0+(?_setPwmRC2)+02h
  3260  01E8  082C               	movf	1+(??_motor+0)+0,w
  3261  01E9  00A9               	movwf	1+(?_setPwmRC2)+02h
  3262  01EA  120A  158A  263B   	fcall	_setPwmRC2
              120A  118A         
  3263                           opt subtitle "HI-TECH Software Omniscient Code Generator (Lite mode) build 49521"
  3264                           
  3265  01EF                     l186:	
  3266  01EF  0008               	return
  3267                           opt subtitle "HI-TECH Software Omniscient Code Generator (Lite mode) build 49521"
  3268                           
  3269  01F0                     	__end_of_motor:
  3270                           opt subtitle "HI-TECH Software Omniscient Code Generator (Lite mode) build 49521"
  3271                           
  3272                           opt pagewidth 120
  3273                           
  3274                           	opt lm
  3275                           
  3276                           	processor	16F887
  3277                           clrc	macro
  3278                           	bcf	3,0
  3279                           	endm
  3280                           clrz	macro
  3281                           	bcf	3,2
  3282                           	endm
  3283                           setc	macro
  3284                           	bsf	3,0
  3285                           	endm
  3286                           setz	macro
  3287                           	bsf	3,2
  3288                           	endm
  3289                           skipc	macro
  3290                           	btfss	3,0
  3291                           	endm
  3292                           skipz	macro
  3293                           	btfss	3,2
  3294                           	endm
  3295                           skipnc	macro
  3296                           	btfsc	3,0
  3297                           	endm
  3298                           skipnz	macro
  3299                           	btfsc	3,2
  3300                           	endm
  3301                           indf	equ	0
  3302                           indf0	equ	0
  3303                           pc	equ	2
  3304                           pcl	equ	2
  3305                           status	equ	3
  3306                           fsr	equ	4
  3307  0EA6                     __ptext453:	;psect for function _setPwmRC1
  3308                           opt subtitle "HI-TECH Software Omniscient Code Generator (Lite mode) build 49521"
  3309                           
  3310                           opt pagewidth 120
  3311                           
  3312  006B                     	__size_of_setPwmRC1	equ	__end_of_setPwmRC1-_setPwmRC1
  3313                           opt subtitle "HI-TECH Software Omniscient Code Generator (Lite mode) build 49521"
  3314  0EA6                     _setPwmRC1:	
  3315                           opt subtitle "HI-TECH Software Omniscient Code Generator (Lite mode) build 49521"
  3316                           
  3317                           opt pagewidth 120
  3318                           
  3319  0EA6                     l1957:	
  3320                           opt subtitle "HI-TECH Software Omniscient Code Generator (Lite mode) build 49521"
  3321                           
  3322  0EA6  3007               	movlw	(07h)
  3323  0EA7  1283               	bcf	status, 5	;RP0=0, select bank0
  3324  0EA8  1303               	bcf	status, 6	;RP1=0, select bank0
  3325  0EA9  0092               	movwf	(18)	;volatile
  3326                           opt subtitle "HI-TECH Software Omniscient Code Generator (Lite mode) build 49521"
  3327                           
  3328  0EAA  300C               	movlw	(0Ch)
  3329  0EAB  009D               	movwf	(29)	;volatile
  3330                           opt subtitle "HI-TECH Software Omniscient Code Generator (Lite mode) build 49521"
  3331                           
  3332  0EAC                     l1959:	
  3333                           opt subtitle "HI-TECH Software Omniscient Code Generator (Lite mode) build 49521"
  3334  0EAC  0826               	movf	(setPwmRC1@freq),w
  3335  0EAD  00F0               	movwf	(?___aldiv)
  3336  0EAE  0827               	movf	(setPwmRC1@freq+1),w
  3337  0EAF  00F1               	movwf	(?___aldiv+1)
  3338  0EB0  3000               	movlw	0
  3339  0EB1  1BF1               	btfsc	(?___aldiv+1),7
  3340  0EB2  30FF               	movlw	255
  3341  0EB3  00F2               	movwf	(?___aldiv+2)
  3342  0EB4  00F3               	movwf	(?___aldiv+3)
  3343  0EB5  3000               	movlw	0
  3344  0EB6  00F7               	movwf	3+(?___aldiv)+04h
  3345  0EB7  3001               	movlw	01h
  3346  0EB8  00F6               	movwf	2+(?___aldiv)+04h
  3347  0EB9  30E8               	movlw	0E8h
  3348  0EBA  00F5               	movwf	1+(?___aldiv)+04h
  3349  0EBB  3048               	movlw	048h
  3350  0EBC  00F4               	movwf	0+(?___aldiv)+04h
  3351                           opt subtitle "HI-TECH Software Omniscient Code Generator (Lite mode) build 49521"
  3352  0EBD  120A  118A  21F0   	fcall	___aldiv
              120A  158A         
  3353  0EC2  0870               	movf	0+(((0+(?___aldiv)))),w
  3354  0EC3  3EFF               	addlw	0FFh
  3355  0EC4  1683               	bsf	status, 5	;RP0=1, select bank1
  3356  0EC5  1303               	bcf	status, 6	;RP1=0, select bank1
  3357  0EC6  0092               	movwf	(146)^080h	;volatile
  3358                           opt subtitle "HI-TECH Software Omniscient Code Generator (Lite mode) build 49521"
  3359                           
  3360  0EC7                     l1961:	
  3361                           opt subtitle "HI-TECH Software Omniscient Code Generator (Lite mode) build 49521"
  3362  0EC7  3019               	movlw	low(019h)
  3363  0EC8  00F6               	movwf	(?___awdiv)
  3364  0EC9  3000               	movlw	high(019h)
  3365  0ECA  00F7               	movwf	((?___awdiv))+1
  3366  0ECB  0812               	movf	(146)^080h,w	;volatile
  3367  0ECC  3E01               	addlw	low(01h)
  3368  0ECD  00F0               	movwf	(?___wmul)
  3369  0ECE  3000               	movlw	high(01h)
  3370  0ECF  1803               	skipnc
  3371  0ED0  3001               	movlw	(high(01h)+1)&0ffh
  3372  0ED1  00F1               	movwf	((?___wmul))+1
  3373  0ED2  1283               	bcf	status, 5	;RP0=0, select bank0
  3374  0ED3  1303               	bcf	status, 6	;RP1=0, select bank0
  3375  0ED4  0829               	movf	(setPwmRC1@duty+1),w
  3376  0ED5  01F3               	clrf	1+(?___wmul)+02h
  3377  0ED6  07F3               	addwf	1+(?___wmul)+02h
  3378  0ED7  0828               	movf	(setPwmRC1@duty),w
  3379  0ED8  01F2               	clrf	0+(?___wmul)+02h
  3380  0ED9  07F2               	addwf	0+(?___wmul)+02h
  3381                           opt subtitle "HI-TECH Software Omniscient Code Generator (Lite mode) build 49521"
  3382  0EDA  120A  158A  24F9   	fcall	___wmul
              120A  158A         
  3383  0EDF  0871               	movf	(1+(?___wmul)),w
  3384  0EE0  01F9               	clrf	1+(?___awdiv)+02h
  3385  0EE1  07F9               	addwf	1+(?___awdiv)+02h
  3386  0EE2  0870               	movf	(0+(?___wmul)),w
  3387  0EE3  01F8               	clrf	0+(?___awdiv)+02h
  3388  0EE4  07F8               	addwf	0+(?___awdiv)+02h
  3389                           opt subtitle "HI-TECH Software Omniscient Code Generator (Lite mode) build 49521"
  3390  0EE5  120A  158A  2711   	fcall	___awdiv
              120A  158A         
  3391  0EEA  0877               	movf	(1+(?___awdiv)),w
  3392  0EEB  01FD               	clrf	(setPwmRC1@a+1)
  3393  0EEC  07FD               	addwf	(setPwmRC1@a+1)
  3394  0EED  0876               	movf	(0+(?___awdiv)),w
  3395  0EEE  01FC               	clrf	(setPwmRC1@a)
  3396  0EEF  07FC               	addwf	(setPwmRC1@a)
  3397                           opt subtitle "HI-TECH Software Omniscient Code Generator (Lite mode) build 49521"
  3398                           
  3399                           opt pagewidth 120
  3400  0EF0                     l1963:	
  3401                           opt subtitle "HI-TECH Software Omniscient Code Generator (Lite mode) build 49521"
  3402  0EF0  3004               	movlw	low(04h)
  3403  0EF1  00F6               	movwf	(?___awdiv)
  3404  0EF2  3000               	movlw	high(04h)
  3405  0EF3  00F7               	movwf	((?___awdiv))+1
  3406  0EF4  087D               	movf	(setPwmRC1@a+1),w
  3407  0EF5  01F9               	clrf	1+(?___awdiv)+02h
  3408  0EF6  07F9               	addwf	1+(?___awdiv)+02h
  3409  0EF7  087C               	movf	(setPwmRC1@a),w
  3410  0EF8  01F8               	clrf	0+(?___awdiv)+02h
  3411  0EF9  07F8               	addwf	0+(?___awdiv)+02h
  3412                           opt subtitle "HI-TECH Software Omniscient Code Generator (Lite mode) build 49521"
  3413  0EFA  120A  158A  2711   	fcall	___awdiv
              120A  158A         
  3414  0EFF  0876               	movf	(0+(?___awdiv)),w
  3415  0F00  1283               	bcf	status, 5	;RP0=0, select bank0
  3416  0F01  1303               	bcf	status, 6	;RP1=0, select bank0
  3417  0F02  009B               	movwf	(27)	;volatile
  3418                           opt subtitle "HI-TECH Software Omniscient Code Generator (Lite mode) build 49521"
  3419                           
  3420  0F03                     l1965:	
  3421                           opt subtitle "HI-TECH Software Omniscient Code Generator (Lite mode) build 49521"
  3422  0F03  087C               	movf	(setPwmRC1@a),w
  3423  0F04  3903               	andlw	03h
  3424  0F05  00FB               	movwf	(??_setPwmRC1+0)+0
  3425  0F06  3004               	movlw	04h
  3426  0F07                     u2075:
  3427  0F07  1003               	clrc
  3428  0F08  0DFB               	rlf	(??_setPwmRC1+0)+0,f
  3429  0F09  3EFF               	addlw	-1
  3430  0F0A  1D03               	skipz
  3431  0F0B  2F07               	goto	u2075
  3432  0F0C  081D               	movf	(29),w	;volatile
  3433  0F0D  39CF               	andlw	0CFh
  3434  0F0E  047B               	iorwf	0+(??_setPwmRC1+0)+0,w
  3435  0F0F  009D               	movwf	(29)	;volatile
  3436                           opt subtitle "HI-TECH Software Omniscient Code Generator (Lite mode) build 49521"
  3437                           
  3438  0F10                     l127:	
  3439  0F10  0008               	return
  3440                           opt subtitle "HI-TECH Software Omniscient Code Generator (Lite mode) build 49521"
  3441                           
  3442  0F11                     	__end_of_setPwmRC1:
  3443                           opt subtitle "HI-TECH Software Omniscient Code Generator (Lite mode) build 49521"
  3444                           
  3445                           opt pagewidth 120
  3446                           
  3447                           	opt lm
  3448                           
  3449                           	processor	16F887
  3450                           clrc	macro
  3451                           	bcf	3,0
  3452                           	endm
  3453                           clrz	macro
  3454                           	bcf	3,2
  3455                           	endm
  3456                           setc	macro
  3457                           	bsf	3,0
  3458                           	endm
  3459                           setz	macro
  3460                           	bsf	3,2
  3461                           	endm
  3462                           skipc	macro
  3463                           	btfss	3,0
  3464                           	endm
  3465                           skipz	macro
  3466                           	btfss	3,2
  3467                           	endm
  3468                           skipnc	macro
  3469                           	btfsc	3,0
  3470                           	endm
  3471                           skipnz	macro
  3472                           	btfsc	3,2
  3473                           	endm
  3474                           indf	equ	0
  3475                           indf0	equ	0
  3476                           pc	equ	2
  3477                           pcl	equ	2
  3478                           status	equ	3
  3479                           fsr	equ	4
  3480  0E3B                     __ptext454:	;psect for function _setPwmRC2
  3481                           opt subtitle "HI-TECH Software Omniscient Code Generator (Lite mode) build 49521"
  3482                           
  3483                           opt pagewidth 120
  3484                           
  3485  006B                     	__size_of_setPwmRC2	equ	__end_of_setPwmRC2-_setPwmRC2
  3486                           opt subtitle "HI-TECH Software Omniscient Code Generator (Lite mode) build 49521"
  3487  0E3B                     _setPwmRC2:	
  3488                           opt subtitle "HI-TECH Software Omniscient Code Generator (Lite mode) build 49521"
  3489                           
  3490                           opt pagewidth 120
  3491                           
  3492  0E3B                     l1967:	
  3493                           opt subtitle "HI-TECH Software Omniscient Code Generator (Lite mode) build 49521"
  3494                           
  3495  0E3B  3007               	movlw	(07h)
  3496  0E3C  1283               	bcf	status, 5	;RP0=0, select bank0
  3497  0E3D  1303               	bcf	status, 6	;RP1=0, select bank0
  3498  0E3E  0092               	movwf	(18)	;volatile
  3499                           opt subtitle "HI-TECH Software Omniscient Code Generator (Lite mode) build 49521"
  3500                           
  3501  0E3F  300C               	movlw	(0Ch)
  3502  0E40  0097               	movwf	(23)	;volatile
  3503                           opt subtitle "HI-TECH Software Omniscient Code Generator (Lite mode) build 49521"
  3504                           
  3505  0E41                     l1969:	
  3506                           opt subtitle "HI-TECH Software Omniscient Code Generator (Lite mode) build 49521"
  3507  0E41  0826               	movf	(setPwmRC2@freq),w
  3508  0E42  00F0               	movwf	(?___aldiv)
  3509  0E43  0827               	movf	(setPwmRC2@freq+1),w
  3510  0E44  00F1               	movwf	(?___aldiv+1)
  3511  0E45  3000               	movlw	0
  3512  0E46  1BF1               	btfsc	(?___aldiv+1),7
  3513  0E47  30FF               	movlw	255
  3514  0E48  00F2               	movwf	(?___aldiv+2)
  3515  0E49  00F3               	movwf	(?___aldiv+3)
  3516  0E4A  3000               	movlw	0
  3517  0E4B  00F7               	movwf	3+(?___aldiv)+04h
  3518  0E4C  3001               	movlw	01h
  3519  0E4D  00F6               	movwf	2+(?___aldiv)+04h
  3520  0E4E  30E8               	movlw	0E8h
  3521  0E4F  00F5               	movwf	1+(?___aldiv)+04h
  3522  0E50  3048               	movlw	048h
  3523  0E51  00F4               	movwf	0+(?___aldiv)+04h
  3524                           opt subtitle "HI-TECH Software Omniscient Code Generator (Lite mode) build 49521"
  3525  0E52  120A  118A  21F0   	fcall	___aldiv
              120A  158A         
  3526  0E57  0870               	movf	0+(((0+(?___aldiv)))),w
  3527  0E58  3EFF               	addlw	0FFh
  3528  0E59  1683               	bsf	status, 5	;RP0=1, select bank1
  3529  0E5A  1303               	bcf	status, 6	;RP1=0, select bank1
  3530  0E5B  0092               	movwf	(146)^080h	;volatile
  3531                           opt subtitle "HI-TECH Software Omniscient Code Generator (Lite mode) build 49521"
  3532                           
  3533  0E5C                     l1971:	
  3534                           opt subtitle "HI-TECH Software Omniscient Code Generator (Lite mode) build 49521"
  3535  0E5C  3019               	movlw	low(019h)
  3536  0E5D  00F6               	movwf	(?___awdiv)
  3537  0E5E  3000               	movlw	high(019h)
  3538  0E5F  00F7               	movwf	((?___awdiv))+1
  3539  0E60  0812               	movf	(146)^080h,w	;volatile
  3540  0E61  3E01               	addlw	low(01h)
  3541  0E62  00F0               	movwf	(?___wmul)
  3542  0E63  3000               	movlw	high(01h)
  3543  0E64  1803               	skipnc
  3544  0E65  3001               	movlw	(high(01h)+1)&0ffh
  3545  0E66  00F1               	movwf	((?___wmul))+1
  3546  0E67  1283               	bcf	status, 5	;RP0=0, select bank0
  3547  0E68  1303               	bcf	status, 6	;RP1=0, select bank0
  3548  0E69  0829               	movf	(setPwmRC2@duty+1),w
  3549  0E6A  01F3               	clrf	1+(?___wmul)+02h
  3550  0E6B  07F3               	addwf	1+(?___wmul)+02h
  3551  0E6C  0828               	movf	(setPwmRC2@duty),w
  3552  0E6D  01F2               	clrf	0+(?___wmul)+02h
  3553  0E6E  07F2               	addwf	0+(?___wmul)+02h
  3554                           opt subtitle "HI-TECH Software Omniscient Code Generator (Lite mode) build 49521"
  3555  0E6F  120A  158A  24F9   	fcall	___wmul
              120A  158A         
  3556  0E74  0871               	movf	(1+(?___wmul)),w
  3557  0E75  01F9               	clrf	1+(?___awdiv)+02h
  3558  0E76  07F9               	addwf	1+(?___awdiv)+02h
  3559  0E77  0870               	movf	(0+(?___wmul)),w
  3560  0E78  01F8               	clrf	0+(?___awdiv)+02h
  3561  0E79  07F8               	addwf	0+(?___awdiv)+02h
  3562                           opt subtitle "HI-TECH Software Omniscient Code Generator (Lite mode) build 49521"
  3563  0E7A  120A  158A  2711   	fcall	___awdiv
              120A  158A         
  3564  0E7F  0877               	movf	(1+(?___awdiv)),w
  3565  0E80  01FD               	clrf	(setPwmRC2@a+1)
  3566  0E81  07FD               	addwf	(setPwmRC2@a+1)
  3567  0E82  0876               	movf	(0+(?___awdiv)),w
  3568  0E83  01FC               	clrf	(setPwmRC2@a)
  3569  0E84  07FC               	addwf	(setPwmRC2@a)
  3570                           opt subtitle "HI-TECH Software Omniscient Code Generator (Lite mode) build 49521"
  3571                           
  3572                           opt pagewidth 120
  3573  0E85                     l1973:	
  3574                           opt subtitle "HI-TECH Software Omniscient Code Generator (Lite mode) build 49521"
  3575  0E85  3004               	movlw	low(04h)
  3576  0E86  00F6               	movwf	(?___awdiv)
  3577  0E87  3000               	movlw	high(04h)
  3578  0E88  00F7               	movwf	((?___awdiv))+1
  3579  0E89  087D               	movf	(setPwmRC2@a+1),w
  3580  0E8A  01F9               	clrf	1+(?___awdiv)+02h
  3581  0E8B  07F9               	addwf	1+(?___awdiv)+02h
  3582  0E8C  087C               	movf	(setPwmRC2@a),w
  3583  0E8D  01F8               	clrf	0+(?___awdiv)+02h
  3584  0E8E  07F8               	addwf	0+(?___awdiv)+02h
  3585                           opt subtitle "HI-TECH Software Omniscient Code Generator (Lite mode) build 49521"
  3586  0E8F  120A  158A  2711   	fcall	___awdiv
              120A  158A         
  3587  0E94  0876               	movf	(0+(?___awdiv)),w
  3588  0E95  1283               	bcf	status, 5	;RP0=0, select bank0
  3589  0E96  1303               	bcf	status, 6	;RP1=0, select bank0
  3590  0E97  0095               	movwf	(21)	;volatile
  3591                           opt subtitle "HI-TECH Software Omniscient Code Generator (Lite mode) build 49521"
  3592                           
  3593  0E98                     l1975:	
  3594                           opt subtitle "HI-TECH Software Omniscient Code Generator (Lite mode) build 49521"
  3595  0E98  087C               	movf	(setPwmRC2@a),w
  3596  0E99  3903               	andlw	03h
  3597  0E9A  00FB               	movwf	(??_setPwmRC2+0)+0
  3598  0E9B  3004               	movlw	04h
  3599  0E9C                     u2085:
  3600  0E9C  1003               	clrc
  3601  0E9D  0DFB               	rlf	(??_setPwmRC2+0)+0,f
  3602  0E9E  3EFF               	addlw	-1
  3603  0E9F  1D03               	skipz
  3604  0EA0  2E9C               	goto	u2085
  3605  0EA1  0817               	movf	(23),w	;volatile
  3606  0EA2  39CF               	andlw	0CFh
  3607  0EA3  047B               	iorwf	0+(??_setPwmRC2+0)+0,w
  3608  0EA4  0097               	movwf	(23)	;volatile
  3609                           opt subtitle "HI-TECH Software Omniscient Code Generator (Lite mode) build 49521"
  3610                           
  3611  0EA5                     l130:	
  3612  0EA5  0008               	return
  3613                           opt subtitle "HI-TECH Software Omniscient Code Generator (Lite mode) build 49521"
  3614                           
  3615  0EA6                     	__end_of_setPwmRC2:
  3616                           opt subtitle "HI-TECH Software Omniscient Code Generator (Lite mode) build 49521"
  3617                           
  3618                           opt pagewidth 120
  3619                           
  3620                           	opt lm
  3621                           
  3622                           	processor	16F887
  3623                           clrc	macro
  3624                           	bcf	3,0
  3625                           	endm
  3626                           clrz	macro
  3627                           	bcf	3,2
  3628                           	endm
  3629                           setc	macro
  3630                           	bsf	3,0
  3631                           	endm
  3632                           setz	macro
  3633                           	bsf	3,2
  3634                           	endm
  3635                           skipc	macro
  3636                           	btfss	3,0
  3637                           	endm
  3638                           skipz	macro
  3639                           	btfss	3,2
  3640                           	endm
  3641                           skipnc	macro
  3642                           	btfsc	3,0
  3643                           	endm
  3644                           skipnz	macro
  3645                           	btfsc	3,2
  3646                           	endm
  3647                           indf	equ	0
  3648                           indf0	equ	0
  3649                           pc	equ	2
  3650                           pcl	equ	2
  3651  0CC7                     __ptext455:	;psect for function ___bmul
  3652                           opt subtitle "HI-TECH Software Omniscient Code Generator (Lite mode) build 49521"
  3653                           
  3654                           opt pagewidth 120
  3655                           
  3656  0018                     	__size_of___bmul	equ	__end_of___bmul-___bmul
  3657                           opt subtitle "HI-TECH Software Omniscient Code Generator (Lite mode) build 49521"
  3658  0CC7                     ___bmul:	
  3659                           opt subtitle "HI-TECH Software Omniscient Code Generator (Lite mode) build 49521"
  3660                           
  3661                           opt pagewidth 120
  3662  0CC7  00F3               	movwf	(___bmul@multiplier)
  3663                           opt subtitle "HI-TECH Software Omniscient Code Generator (Lite mode) build 49521"
  3664                           
  3665  0CC8                     l1659:	
  3666  0CC8  01F2               	clrf	(___bmul@product)
  3667                           opt subtitle "HI-TECH Software Omniscient Code Generator (Lite mode) build 49521"
  3668                           
  3669  0CC9                     l269:	
  3670                           opt subtitle "HI-TECH Software Omniscient Code Generator (Lite mode) build 49521"
  3671  0CC9  1C73               	btfss	(___bmul@multiplier),(0)&7
  3672  0CCA  2CCC               	goto	u1341
  3673  0CCB  2CCD               	goto	u1340
  3674  0CCC                     u1341:
  3675  0CCC  2CD2               	goto	l1663
  3676  0CCD                     u1340:
  3677                           opt subtitle "HI-TECH Software Omniscient Code Generator (Lite mode) build 49521"
  3678                           
  3679  0CCD                     l1661:	
  3680  0CCD  0870               	movf	(___bmul@multiplicand),w
  3681  0CCE  00F1               	movwf	(??___bmul+0)+0
  3682  0CCF  0871               	movf	(??___bmul+0)+0,w
  3683  0CD0  07F2               	addwf	(___bmul@product),f
  3684  0CD1  2CD2               	goto	l1663
  3685                           opt subtitle "HI-TECH Software Omniscient Code Generator (Lite mode) build 49521"
  3686  0CD2                     l270:	
  3687                           opt subtitle "HI-TECH Software Omniscient Code Generator (Lite mode) build 49521"
  3688                           
  3689  0CD2                     l1663:	
  3690  0CD2  1003               	clrc
  3691  0CD3  0DF0               	rlf	(___bmul@multiplicand),f
  3692                           opt subtitle "HI-TECH Software Omniscient Code Generator (Lite mode) build 49521"
  3693                           
  3694                           opt pagewidth 120
  3695  0CD4                     l1665:	
  3696  0CD4  1003               	clrc
  3697  0CD5  0CF3               	rrf	(___bmul@multiplier),f
  3698                           opt subtitle "HI-TECH Software Omniscient Code Generator (Lite mode) build 49521"
  3699                           
  3700                           opt pagewidth 120
  3701  0CD6                     l1667:	
  3702  0CD6  08F3               	movf	(___bmul@multiplier),f
  3703  0CD7  1D03               	skipz
  3704  0CD8  2CDA               	goto	u1351
  3705  0CD9  2CDB               	goto	u1350
  3706  0CDA                     u1351:
  3707  0CDA  2CC9               	goto	l269
  3708  0CDB                     u1350:
  3709  0CDB  2CDC               	goto	l1669
  3710                           opt subtitle "HI-TECH Software Omniscient Code Generator (Lite mode) build 49521"
  3711  0CDC                     l271:	
  3712                           opt subtitle "HI-TECH Software Omniscient Code Generator (Lite mode) build 49521"
  3713                           
  3714  0CDC                     l1669:	
  3715  0CDC  0872               	movf	(___bmul@product),w
  3716  0CDD  2CDE               	goto	l272
  3717                           opt subtitle "HI-TECH Software Omniscient Code Generator (Lite mode) build 49521"
  3718  0CDE                     l1671:	
  3719                           opt subtitle "HI-TECH Software Omniscient Code Generator (Lite mode) build 49521"
  3720                           
  3721  0CDE                     l272:	
  3722  0CDE  0008               	return
  3723                           opt subtitle "HI-TECH Software Omniscient Code Generator (Lite mode) build 49521"
  3724                           
  3725  0CDF                     	__end_of___bmul:
  3726                           opt subtitle "HI-TECH Software Omniscient Code Generator (Lite mode) build 49521"
  3727                           
  3728                           opt pagewidth 120
  3729                           
  3730                           	opt lm
  3731                           
  3732                           	processor	16F887
  3733                           clrc	macro
  3734                           	bcf	3,0
  3735                           	endm
  3736                           clrz	macro
  3737                           	bcf	3,2
  3738                           	endm
  3739                           setc	macro
  3740                           	bsf	3,0
  3741                           	endm
  3742                           setz	macro
  3743                           	bsf	3,2
  3744                           	endm
  3745                           skipc	macro
  3746                           	btfss	3,0
  3747                           	endm
  3748                           skipz	macro
  3749                           	btfss	3,2
  3750                           	endm
  3751                           skipnc	macro
  3752                           	btfsc	3,0
  3753                           	endm
  3754                           skipnz	macro
  3755                           	btfsc	3,2
  3756                           	endm
  3757                           indf	equ	0
  3758                           indf0	equ	0
  3759                           pc	equ	2
  3760                           pcl	equ	2
  3761  0CF9                     __ptext456:	;psect for function ___wmul
  3762                           opt subtitle "HI-TECH Software Omniscient Code Generator (Lite mode) build 49521"
  3763                           
  3764                           opt pagewidth 120
  3765                           
  3766  002A                     	__size_of___wmul	equ	__end_of___wmul-___wmul
  3767                           opt subtitle "HI-TECH Software Omniscient Code Generator (Lite mode) build 49521"
  3768  0CF9                     ___wmul:	
  3769                           opt subtitle "HI-TECH Software Omniscient Code Generator (Lite mode) build 49521"
  3770                           
  3771                           opt pagewidth 120
  3772                           
  3773  0CF9                     l1673:	
  3774  0CF9  01F4               	clrf	(___wmul@product)
  3775  0CFA  01F5               	clrf	(___wmul@product+1)
  3776  0CFB  2CFC               	goto	l1675
  3777                           opt subtitle "HI-TECH Software Omniscient Code Generator (Lite mode) build 49521"
  3778                           
  3779  0CFC                     l275:	
  3780                           opt subtitle "HI-TECH Software Omniscient Code Generator (Lite mode) build 49521"
  3781                           
  3782  0CFC                     l1675:	
  3783  0CFC  1C70               	btfss	(___wmul@multiplier),(0)&7
  3784  0CFD  2CFF               	goto	u1361
  3785  0CFE  2D00               	goto	u1360
  3786  0CFF                     u1361:
  3787  0CFF  2D06               	goto	l276
  3788  0D00                     u1360:
  3789                           opt subtitle "HI-TECH Software Omniscient Code Generator (Lite mode) build 49521"
  3790                           
  3791  0D00                     l1677:	
  3792  0D00  0872               	movf	(___wmul@multiplicand),w
  3793  0D01  07F4               	addwf	(___wmul@product),f
  3794  0D02  1803               	skipnc
  3795  0D03  0AF5               	incf	(___wmul@product+1),f
  3796  0D04  0873               	movf	(___wmul@multiplicand+1),w
  3797  0D05  07F5               	addwf	(___wmul@product+1),f
  3798                           opt subtitle "HI-TECH Software Omniscient Code Generator (Lite mode) build 49521"
  3799  0D06                     l276:	
  3800                           opt subtitle "HI-TECH Software Omniscient Code Generator (Lite mode) build 49521"
  3801  0D06  3001               	movlw	01h
  3802                           opt subtitle "HI-TECH Software Omniscient Code Generator (Lite mode) build 49521"
  3803  0D07                     u1375:
  3804  0D07  1003               	clrc
  3805  0D08  0DF2               	rlf	(___wmul@multiplicand),f
  3806  0D09  0DF3               	rlf	(___wmul@multiplicand+1),f
  3807  0D0A  3EFF               	addlw	-1
  3808  0D0B  1D03               	skipz
  3809  0D0C  2D07               	goto	u1375
  3810                           opt subtitle "HI-TECH Software Omniscient Code Generator (Lite mode) build 49521"
  3811                           
  3812  0D0D                     l1679:	
  3813  0D0D  3001               	movlw	01h
  3814                           opt subtitle "HI-TECH Software Omniscient Code Generator (Lite mode) build 49521"
  3815  0D0E                     u1385:
  3816  0D0E  1003               	clrc
  3817  0D0F  0CF1               	rrf	(___wmul@multiplier+1),f
  3818  0D10  0CF0               	rrf	(___wmul@multiplier),f
  3819  0D11  3EFF               	addlw	-1
  3820  0D12  1D03               	skipz
  3821  0D13  2D0E               	goto	u1385
  3822                           opt subtitle "HI-TECH Software Omniscient Code Generator (Lite mode) build 49521"
  3823  0D14  0871               	movf	((___wmul@multiplier+1)),w
  3824  0D15  0470               	iorwf	((___wmul@multiplier)),w
  3825  0D16  1D03               	skipz
  3826  0D17  2D19               	goto	u1391
  3827  0D18  2D1A               	goto	u1390
  3828  0D19                     u1391:
  3829  0D19  2CFC               	goto	l1675
  3830  0D1A                     u1390:
  3831  0D1A  2D1B               	goto	l1681
  3832                           opt subtitle "HI-TECH Software Omniscient Code Generator (Lite mode) build 49521"
  3833  0D1B                     l277:	
  3834                           opt subtitle "HI-TECH Software Omniscient Code Generator (Lite mode) build 49521"
  3835                           
  3836  0D1B                     l1681:	
  3837  0D1B  0875               	movf	(___wmul@product+1),w
  3838  0D1C  01F1               	clrf	(?___wmul+1)
  3839  0D1D  07F1               	addwf	(?___wmul+1)
  3840  0D1E  0874               	movf	(___wmul@product),w
  3841  0D1F  01F0               	clrf	(?___wmul)
  3842  0D20  07F0               	addwf	(?___wmul)
  3843                           opt subtitle "HI-TECH Software Omniscient Code Generator (Lite mode) build 49521"
  3844  0D21  2D22               	goto	l278
  3845                           opt subtitle "HI-TECH Software Omniscient Code Generator (Lite mode) build 49521"
  3846  0D22                     l1683:	
  3847                           opt subtitle "HI-TECH Software Omniscient Code Generator (Lite mode) build 49521"
  3848                           
  3849  0D22                     l278:	
  3850  0D22  0008               	return
  3851                           opt subtitle "HI-TECH Software Omniscient Code Generator (Lite mode) build 49521"
  3852                           
  3853  0D23                     	__end_of___wmul:
  3854                           opt subtitle "HI-TECH Software Omniscient Code Generator (Lite mode) build 49521"
  3855                           
  3856                           opt pagewidth 120
  3857                           
  3858                           	opt lm
  3859                           
  3860                           	processor	16F887
  3861                           clrc	macro
  3862                           	bcf	3,0
  3863                           	endm
  3864                           clrz	macro
  3865                           	bcf	3,2
  3866                           	endm
  3867                           setc	macro
  3868                           	bsf	3,0
  3869                           	endm
  3870                           setz	macro
  3871                           	bsf	3,2
  3872                           	endm
  3873                           skipc	macro
  3874                           	btfss	3,0
  3875                           	endm
  3876                           skipz	macro
  3877                           	btfss	3,2
  3878                           	endm
  3879                           skipnc	macro
  3880                           	btfsc	3,0
  3881                           	endm
  3882                           skipnz	macro
  3883                           	btfsc	3,2
  3884                           	endm
  3885                           indf	equ	0
  3886                           indf0	equ	0
  3887                           pc	equ	2
  3888                           pcl	equ	2
  3889  0D9E                     __ptext457:	;psect for function ___lwdiv
  3890                           opt subtitle "HI-TECH Software Omniscient Code Generator (Lite mode) build 49521"
  3891                           
  3892                           opt pagewidth 120
  3893                           
  3894  004D                     	__size_of___lwdiv	equ	__end_of___lwdiv-___lwdiv
  3895                           opt subtitle "HI-TECH Software Omniscient Code Generator (Lite mode) build 49521"
  3896  0D9E                     ___lwdiv:	
  3897                           opt subtitle "HI-TECH Software Omniscient Code Generator (Lite mode) build 49521"
  3898                           
  3899                           opt pagewidth 120
  3900                           
  3901  0D9E                     l1685:	
  3902  0D9E  01F5               	clrf	(___lwdiv@quotient)
  3903  0D9F  01F6               	clrf	(___lwdiv@quotient+1)
  3904                           opt subtitle "HI-TECH Software Omniscient Code Generator (Lite mode) build 49521"
  3905                           
  3906  0DA0                     l1687:	
  3907  0DA0  0871               	movf	(___lwdiv@divisor+1),w
  3908  0DA1  0470               	iorwf	(___lwdiv@divisor),w
  3909  0DA2  1903               	skipnz
  3910  0DA3  2DA5               	goto	u1401
  3911  0DA4  2DA6               	goto	u1400
  3912  0DA5                     u1401:
  3913  0DA5  2DE3               	goto	l1707
  3914  0DA6                     u1400:
  3915                           opt subtitle "HI-TECH Software Omniscient Code Generator (Lite mode) build 49521"
  3916                           
  3917  0DA6                     l1689:	
  3918  0DA6  01F7               	clrf	(___lwdiv@counter)
  3919  0DA7  0AF7               	incf	(___lwdiv@counter),f
  3920                           opt subtitle "HI-TECH Software Omniscient Code Generator (Lite mode) build 49521"
  3921  0DA8  2DB5               	goto	l1695
  3922                           opt subtitle "HI-TECH Software Omniscient Code Generator (Lite mode) build 49521"
  3923  0DA9                     l283:	
  3924                           opt subtitle "HI-TECH Software Omniscient Code Generator (Lite mode) build 49521"
  3925                           
  3926  0DA9                     l1691:	
  3927  0DA9  3001               	movlw	01h
  3928                           opt subtitle "HI-TECH Software Omniscient Code Generator (Lite mode) build 49521"
  3929  0DAA                     u1415:
  3930  0DAA  1003               	clrc
  3931  0DAB  0DF0               	rlf	(___lwdiv@divisor),f
  3932  0DAC  0DF1               	rlf	(___lwdiv@divisor+1),f
  3933  0DAD  3EFF               	addlw	-1
  3934  0DAE  1D03               	skipz
  3935  0DAF  2DAA               	goto	u1415
  3936                           opt subtitle "HI-TECH Software Omniscient Code Generator (Lite mode) build 49521"
  3937                           
  3938  0DB0                     l1693:	
  3939  0DB0  3001               	movlw	(01h)
  3940  0DB1  00F4               	movwf	(??___lwdiv+0)+0
  3941  0DB2  0874               	movf	(??___lwdiv+0)+0,w
  3942  0DB3  07F7               	addwf	(___lwdiv@counter),f
  3943  0DB4  2DB5               	goto	l1695
  3944                           opt subtitle "HI-TECH Software Omniscient Code Generator (Lite mode) build 49521"
  3945                           
  3946  0DB5                     l282:	
  3947                           opt subtitle "HI-TECH Software Omniscient Code Generator (Lite mode) build 49521"
  3948                           
  3949  0DB5                     l1695:	
  3950  0DB5  1FF1               	btfss	(___lwdiv@divisor+1),(15)&7
  3951  0DB6  2DB8               	goto	u1421
  3952  0DB7  2DB9               	goto	u1420
  3953  0DB8                     u1421:
  3954  0DB8  2DA9               	goto	l1691
  3955  0DB9                     u1420:
  3956  0DB9  2DBB               	goto	l1697
  3957                           opt subtitle "HI-TECH Software Omniscient Code Generator (Lite mode) build 49521"
  3958  0DBA                     l284:	
  3959  0DBA  2DBB               	goto	l1697
  3960                           opt subtitle "HI-TECH Software Omniscient Code Generator (Lite mode) build 49521"
  3961                           
  3962  0DBB                     l285:	
  3963                           opt subtitle "HI-TECH Software Omniscient Code Generator (Lite mode) build 49521"
  3964                           
  3965  0DBB                     l1697:	
  3966  0DBB  3001               	movlw	01h
  3967                           opt subtitle "HI-TECH Software Omniscient Code Generator (Lite mode) build 49521"
  3968  0DBC                     u1435:
  3969  0DBC  1003               	clrc
  3970  0DBD  0DF5               	rlf	(___lwdiv@quotient),f
  3971  0DBE  0DF6               	rlf	(___lwdiv@quotient+1),f
  3972  0DBF  3EFF               	addlw	-1
  3973  0DC0  1D03               	skipz
  3974  0DC1  2DBC               	goto	u1435
  3975                           opt subtitle "HI-TECH Software Omniscient Code Generator (Lite mode) build 49521"
  3976  0DC2  0871               	movf	(___lwdiv@divisor+1),w
  3977  0DC3  0273               	subwf	(___lwdiv@dividend+1),w
  3978  0DC4  1D03               	skipz
  3979  0DC5  2DC8               	goto	u1445
  3980  0DC6  0870               	movf	(___lwdiv@divisor),w
  3981  0DC7  0272               	subwf	(___lwdiv@dividend),w
  3982  0DC8                     u1445:
  3983  0DC8  1C03               	skipc
  3984  0DC9  2DCB               	goto	u1441
  3985  0DCA  2DCC               	goto	u1440
  3986  0DCB                     u1441:
  3987  0DCB  2DD4               	goto	l1703
  3988  0DCC                     u1440:
  3989                           opt subtitle "HI-TECH Software Omniscient Code Generator (Lite mode) build 49521"
  3990                           
  3991  0DCC                     l1699:	
  3992  0DCC  0870               	movf	(___lwdiv@divisor),w
  3993  0DCD  02F2               	subwf	(___lwdiv@dividend),f
  3994  0DCE  0871               	movf	(___lwdiv@divisor+1),w
  3995  0DCF  1C03               	skipc
  3996  0DD0  03F3               	decf	(___lwdiv@dividend+1),f
  3997  0DD1  02F3               	subwf	(___lwdiv@dividend+1),f
  3998                           opt subtitle "HI-TECH Software Omniscient Code Generator (Lite mode) build 49521"
  3999                           
  4000  0DD2                     l1701:	
  4001  0DD2  1475               	bsf	(___lwdiv@quotient)+(0/8),(0)&7
  4002  0DD3  2DD4               	goto	l1703
  4003                           opt subtitle "HI-TECH Software Omniscient Code Generator (Lite mode) build 49521"
  4004                           
  4005  0DD4                     l286:	
  4006                           opt subtitle "HI-TECH Software Omniscient Code Generator (Lite mode) build 49521"
  4007                           
  4008  0DD4                     l1703:	
  4009  0DD4  3001               	movlw	01h
  4010                           opt subtitle "HI-TECH Software Omniscient Code Generator (Lite mode) build 49521"
  4011  0DD5                     u1455:
  4012  0DD5  1003               	clrc
  4013  0DD6  0CF1               	rrf	(___lwdiv@divisor+1),f
  4014  0DD7  0CF0               	rrf	(___lwdiv@divisor),f
  4015  0DD8  3EFF               	addlw	-1
  4016  0DD9  1D03               	skipz
  4017  0DDA  2DD5               	goto	u1455
  4018                           opt subtitle "HI-TECH Software Omniscient Code Generator (Lite mode) build 49521"
  4019                           
  4020  0DDB                     l1705:	
  4021  0DDB  3001               	movlw	low(01h)
  4022  0DDC  02F7               	subwf	(___lwdiv@counter),f
  4023  0DDD  1D03               	btfss	status,2
  4024  0DDE  2DE0               	goto	u1461
  4025  0DDF  2DE1               	goto	u1460
  4026  0DE0                     u1461:
  4027  0DE0  2DBB               	goto	l1697
  4028  0DE1                     u1460:
  4029  0DE1  2DE3               	goto	l1707
  4030                           opt subtitle "HI-TECH Software Omniscient Code Generator (Lite mode) build 49521"
  4031  0DE2                     l287:	
  4032  0DE2  2DE3               	goto	l1707
  4033                           opt subtitle "HI-TECH Software Omniscient Code Generator (Lite mode) build 49521"
  4034                           
  4035  0DE3                     l281:	
  4036                           opt subtitle "HI-TECH Software Omniscient Code Generator (Lite mode) build 49521"
  4037                           
  4038  0DE3                     l1707:	
  4039  0DE3  0876               	movf	(___lwdiv@quotient+1),w
  4040  0DE4  01F1               	clrf	(?___lwdiv+1)
  4041  0DE5  07F1               	addwf	(?___lwdiv+1)
  4042  0DE6  0875               	movf	(___lwdiv@quotient),w
  4043  0DE7  01F0               	clrf	(?___lwdiv)
  4044  0DE8  07F0               	addwf	(?___lwdiv)
  4045                           opt subtitle "HI-TECH Software Omniscient Code Generator (Lite mode) build 49521"
  4046  0DE9  2DEA               	goto	l288
  4047                           opt subtitle "HI-TECH Software Omniscient Code Generator (Lite mode) build 49521"
  4048  0DEA                     l1709:	
  4049                           opt subtitle "HI-TECH Software Omniscient Code Generator (Lite mode) build 49521"
  4050                           
  4051  0DEA                     l288:	
  4052  0DEA  0008               	return
  4053                           opt subtitle "HI-TECH Software Omniscient Code Generator (Lite mode) build 49521"
  4054                           
  4055  0DEB                     	__end_of___lwdiv:
  4056                           opt subtitle "HI-TECH Software Omniscient Code Generator (Lite mode) build 49521"
  4057                           
  4058                           opt pagewidth 120
  4059                           
  4060                           	opt lm
  4061                           
  4062                           	processor	16F887
  4063                           clrc	macro
  4064                           	bcf	3,0
  4065                           	endm
  4066                           clrz	macro
  4067                           	bcf	3,2
  4068                           	endm
  4069                           setc	macro
  4070                           	bsf	3,0
  4071                           	endm
  4072                           setz	macro
  4073                           	bsf	3,2
  4074                           	endm
  4075                           skipc	macro
  4076                           	btfss	3,0
  4077                           	endm
  4078                           skipz	macro
  4079                           	btfss	3,2
  4080                           	endm
  4081                           skipnc	macro
  4082                           	btfsc	3,0
  4083                           	endm
  4084                           skipnz	macro
  4085                           	btfsc	3,2
  4086                           	endm
  4087                           indf	equ	0
  4088                           indf0	equ	0
  4089                           pc	equ	2
  4090  0D5B                     __ptext458:	;psect for function ___lwmod
  4091                           opt subtitle "HI-TECH Software Omniscient Code Generator (Lite mode) build 49521"
  4092                           
  4093                           opt pagewidth 120
  4094                           
  4095  0043                     	__size_of___lwmod	equ	__end_of___lwmod-___lwmod
  4096                           opt subtitle "HI-TECH Software Omniscient Code Generator (Lite mode) build 49521"
  4097  0D5B                     ___lwmod:	
  4098                           opt subtitle "HI-TECH Software Omniscient Code Generator (Lite mode) build 49521"
  4099                           
  4100                           opt pagewidth 120
  4101                           
  4102  0D5B                     l1711:	
  4103  0D5B  0871               	movf	(___lwmod@divisor+1),w
  4104  0D5C  0470               	iorwf	(___lwmod@divisor),w
  4105  0D5D  1903               	skipnz
  4106  0D5E  2D60               	goto	u1471
  4107  0D5F  2D61               	goto	u1470
  4108  0D60                     u1471:
  4109  0D60  2D96               	goto	l1729
  4110  0D61                     u1470:
  4111                           opt subtitle "HI-TECH Software Omniscient Code Generator (Lite mode) build 49521"
  4112                           
  4113  0D61                     l1713:	
  4114  0D61  01F5               	clrf	(___lwmod@counter)
  4115  0D62  0AF5               	incf	(___lwmod@counter),f
  4116                           opt subtitle "HI-TECH Software Omniscient Code Generator (Lite mode) build 49521"
  4117  0D63  2D70               	goto	l1719
  4118                           opt subtitle "HI-TECH Software Omniscient Code Generator (Lite mode) build 49521"
  4119  0D64                     l293:	
  4120                           opt subtitle "HI-TECH Software Omniscient Code Generator (Lite mode) build 49521"
  4121                           
  4122  0D64                     l1715:	
  4123  0D64  3001               	movlw	01h
  4124                           opt subtitle "HI-TECH Software Omniscient Code Generator (Lite mode) build 49521"
  4125  0D65                     u1485:
  4126  0D65  1003               	clrc
  4127  0D66  0DF0               	rlf	(___lwmod@divisor),f
  4128  0D67  0DF1               	rlf	(___lwmod@divisor+1),f
  4129  0D68  3EFF               	addlw	-1
  4130  0D69  1D03               	skipz
  4131  0D6A  2D65               	goto	u1485
  4132                           opt subtitle "HI-TECH Software Omniscient Code Generator (Lite mode) build 49521"
  4133                           
  4134  0D6B                     l1717:	
  4135  0D6B  3001               	movlw	(01h)
  4136  0D6C  00F4               	movwf	(??___lwmod+0)+0
  4137  0D6D  0874               	movf	(??___lwmod+0)+0,w
  4138  0D6E  07F5               	addwf	(___lwmod@counter),f
  4139  0D6F  2D70               	goto	l1719
  4140                           opt subtitle "HI-TECH Software Omniscient Code Generator (Lite mode) build 49521"
  4141                           
  4142  0D70                     l292:	
  4143                           opt subtitle "HI-TECH Software Omniscient Code Generator (Lite mode) build 49521"
  4144                           
  4145  0D70                     l1719:	
  4146  0D70  1FF1               	btfss	(___lwmod@divisor+1),(15)&7
  4147  0D71  2D73               	goto	u1491
  4148  0D72  2D74               	goto	u1490
  4149  0D73                     u1491:
  4150  0D73  2D64               	goto	l1715
  4151  0D74                     u1490:
  4152  0D74  2D76               	goto	l1721
  4153                           opt subtitle "HI-TECH Software Omniscient Code Generator (Lite mode) build 49521"
  4154  0D75                     l294:	
  4155  0D75  2D76               	goto	l1721
  4156                           opt subtitle "HI-TECH Software Omniscient Code Generator (Lite mode) build 49521"
  4157                           
  4158  0D76                     l295:	
  4159                           opt subtitle "HI-TECH Software Omniscient Code Generator (Lite mode) build 49521"
  4160                           
  4161  0D76                     l1721:	
  4162  0D76  0871               	movf	(___lwmod@divisor+1),w
  4163  0D77  0273               	subwf	(___lwmod@dividend+1),w
  4164  0D78  1D03               	skipz
  4165  0D79  2D7C               	goto	u1505
  4166  0D7A  0870               	movf	(___lwmod@divisor),w
  4167  0D7B  0272               	subwf	(___lwmod@dividend),w
  4168  0D7C                     u1505:
  4169  0D7C  1C03               	skipc
  4170  0D7D  2D7F               	goto	u1501
  4171  0D7E  2D80               	goto	u1500
  4172  0D7F                     u1501:
  4173  0D7F  2D87               	goto	l1725
  4174  0D80                     u1500:
  4175                           opt subtitle "HI-TECH Software Omniscient Code Generator (Lite mode) build 49521"
  4176                           
  4177  0D80                     l1723:	
  4178  0D80  0870               	movf	(___lwmod@divisor),w
  4179  0D81  02F2               	subwf	(___lwmod@dividend),f
  4180  0D82  0871               	movf	(___lwmod@divisor+1),w
  4181  0D83  1C03               	skipc
  4182  0D84  03F3               	decf	(___lwmod@dividend+1),f
  4183  0D85  02F3               	subwf	(___lwmod@dividend+1),f
  4184  0D86  2D87               	goto	l1725
  4185                           opt subtitle "HI-TECH Software Omniscient Code Generator (Lite mode) build 49521"
  4186  0D87                     l296:	
  4187                           opt subtitle "HI-TECH Software Omniscient Code Generator (Lite mode) build 49521"
  4188                           
  4189  0D87                     l1725:	
  4190  0D87  3001               	movlw	01h
  4191                           opt subtitle "HI-TECH Software Omniscient Code Generator (Lite mode) build 49521"
  4192  0D88                     u1515:
  4193  0D88  1003               	clrc
  4194  0D89  0CF1               	rrf	(___lwmod@divisor+1),f
  4195  0D8A  0CF0               	rrf	(___lwmod@divisor),f
  4196  0D8B  3EFF               	addlw	-1
  4197  0D8C  1D03               	skipz
  4198  0D8D  2D88               	goto	u1515
  4199                           opt subtitle "HI-TECH Software Omniscient Code Generator (Lite mode) build 49521"
  4200                           
  4201  0D8E                     l1727:	
  4202  0D8E  3001               	movlw	low(01h)
  4203  0D8F  02F5               	subwf	(___lwmod@counter),f
  4204  0D90  1D03               	btfss	status,2
  4205  0D91  2D93               	goto	u1521
  4206  0D92  2D94               	goto	u1520
  4207  0D93                     u1521:
  4208  0D93  2D76               	goto	l1721
  4209  0D94                     u1520:
  4210  0D94  2D96               	goto	l1729
  4211                           opt subtitle "HI-TECH Software Omniscient Code Generator (Lite mode) build 49521"
  4212  0D95                     l297:	
  4213  0D95  2D96               	goto	l1729
  4214                           opt subtitle "HI-TECH Software Omniscient Code Generator (Lite mode) build 49521"
  4215                           
  4216  0D96                     l291:	
  4217                           opt subtitle "HI-TECH Software Omniscient Code Generator (Lite mode) build 49521"
  4218                           
  4219  0D96                     l1729:	
  4220  0D96  0873               	movf	(___lwmod@dividend+1),w
  4221  0D97  01F1               	clrf	(?___lwmod+1)
  4222  0D98  07F1               	addwf	(?___lwmod+1)
  4223  0D99  0872               	movf	(___lwmod@dividend),w
  4224  0D9A  01F0               	clrf	(?___lwmod)
  4225  0D9B  07F0               	addwf	(?___lwmod)
  4226                           opt subtitle "HI-TECH Software Omniscient Code Generator (Lite mode) build 49521"
  4227  0D9C  2D9D               	goto	l298
  4228                           opt subtitle "HI-TECH Software Omniscient Code Generator (Lite mode) build 49521"
  4229  0D9D                     l1731:	
  4230                           opt subtitle "HI-TECH Software Omniscient Code Generator (Lite mode) build 49521"
  4231                           
  4232  0D9D                     l298:	
  4233  0D9D  0008               	return
  4234                           opt subtitle "HI-TECH Software Omniscient Code Generator (Lite mode) build 49521"
  4235                           
  4236  0D9E                     	__end_of___lwmod:
  4237                           opt subtitle "HI-TECH Software Omniscient Code Generator (Lite mode) build 49521"
  4238                           
  4239                           opt pagewidth 120
  4240                           
  4241                           	opt lm
  4242                           
  4243                           	processor	16F887
  4244                           clrc	macro
  4245                           	bcf	3,0
  4246                           	endm
  4247                           clrz	macro
  4248                           	bcf	3,2
  4249                           	endm
  4250                           setc	macro
  4251                           	bsf	3,0
  4252                           	endm
  4253                           setz	macro
  4254                           	bsf	3,2
  4255                           	endm
  4256                           skipc	macro
  4257                           	btfss	3,0
  4258                           	endm
  4259                           skipz	macro
  4260                           	btfss	3,2
  4261                           	endm
  4262                           skipnc	macro
  4263                           	btfsc	3,0
  4264                           	endm
  4265                           skipnz	macro
  4266                           	btfsc	3,2
  4267                           	endm
  4268                           indf	equ	0
  4269                           indf0	equ	0
  4270                           pc	equ	2
  4271                           pcl	equ	2
  4272                           status	equ	3
  4273                           fsr	equ	4
  4274  04F9                     __ptext459:	;psect for function ___ftadd
  4275                           opt subtitle "HI-TECH Software Omniscient Code Generator (Lite mode) build 49521"
  4276                           
  4277                           opt pagewidth 120
  4278                           
  4279  0145                     	__size_of___ftadd	equ	__end_of___ftadd-___ftadd
  4280                           opt subtitle "HI-TECH Software Omniscient Code Generator (Lite mode) build 49521"
  4281  04F9                     ___ftadd:	
  4282                           opt subtitle "HI-TECH Software Omniscient Code Generator (Lite mode) build 49521"
  4283                           
  4284                           opt pagewidth 120
  4285                           
  4286  04F9                     l2065:	
  4287  04F9  1283               	bcf	status, 5	;RP0=0, select bank0
  4288  04FA  1303               	bcf	status, 6	;RP1=0, select bank0
  4289  04FB  083E               	movf	(___ftadd@f1),w
  4290  04FC  00C4               	movwf	((??___ftadd+0)+0)
  4291  04FD  083F               	movf	(___ftadd@f1+1),w
  4292  04FE  00C5               	movwf	((??___ftadd+0)+0+1)
  4293  04FF  0840               	movf	(___ftadd@f1+2),w
  4294  0500  00C6               	movwf	((??___ftadd+0)+0+2)
  4295  0501  1003               	clrc
  4296  0502  0D45               	rlf	(??___ftadd+0)+1,w
  4297  0503  0D46               	rlf	(??___ftadd+0)+2,w
  4298  0504  00C7               	movwf	(??___ftadd+3)+0
  4299  0505  0847               	movf	(??___ftadd+3)+0,w
  4300  0506  00CA               	movwf	(___ftadd@exp1)
  4301                           opt subtitle "HI-TECH Software Omniscient Code Generator (Lite mode) build 49521"
  4302  0507  0841               	movf	(___ftadd@f2),w
  4303  0508  00C4               	movwf	((??___ftadd+0)+0)
  4304  0509  0842               	movf	(___ftadd@f2+1),w
  4305  050A  00C5               	movwf	((??___ftadd+0)+0+1)
  4306  050B  0843               	movf	(___ftadd@f2+2),w
  4307  050C  00C6               	movwf	((??___ftadd+0)+0+2)
  4308  050D  1003               	clrc
  4309  050E  0D45               	rlf	(??___ftadd+0)+1,w
  4310  050F  0D46               	rlf	(??___ftadd+0)+2,w
  4311  0510  00C7               	movwf	(??___ftadd+3)+0
  4312  0511  0847               	movf	(??___ftadd+3)+0,w
  4313  0512  00C9               	movwf	(___ftadd@exp2)
  4314                           opt subtitle "HI-TECH Software Omniscient Code Generator (Lite mode) build 49521"
  4315                           
  4316  0513                     l2067:	
  4317  0513  084A               	movf	(___ftadd@exp1),w
  4318  0514  1D03               	skipz
  4319  0515  2D17               	goto	u2250
  4320  0516  2D28               	goto	l2073
  4321  0517                     u2250:
  4322                           opt subtitle "HI-TECH Software Omniscient Code Generator (Lite mode) build 49521"
  4323  0517                     l2069:	
  4324  0517  0849               	movf	(___ftadd@exp2),w
  4325  0518  024A               	subwf	(___ftadd@exp1),w
  4326  0519  1803               	skipnc
  4327  051A  2D1C               	goto	u2261
  4328  051B  2D1D               	goto	u2260
  4329  051C                     u2261:
  4330  051C  2D30               	goto	l2077
  4331  051D                     u2260:
  4332                           opt subtitle "HI-TECH Software Omniscient Code Generator (Lite mode) build 49521"
  4333  051D                     l2071:	
  4334  051D  034A               	decf	(___ftadd@exp1),w
  4335  051E  3AFF               	xorlw	0ffh
  4336  051F  0749               	addwf	(___ftadd@exp2),w
  4337  0520  00C4               	movwf	(??___ftadd+0)+0
  4338  0521  3019               	movlw	(019h)
  4339  0522  0244               	subwf	0+(??___ftadd+0)+0,w
  4340  0523  1C03               	skipc
  4341  0524  2D26               	goto	u2271
  4342  0525  2D27               	goto	u2270
  4343  0526                     u2271:
  4344  0526  2D30               	goto	l2077
  4345  0527                     u2270:
  4346  0527  2D28               	goto	l2073
  4347                           opt subtitle "HI-TECH Software Omniscient Code Generator (Lite mode) build 49521"
  4348  0528                     l321:	
  4349                           opt subtitle "HI-TECH Software Omniscient Code Generator (Lite mode) build 49521"
  4350                           
  4351  0528                     l2073:	
  4352  0528  0841               	movf	(___ftadd@f2),w
  4353  0529  00BE               	movwf	(?___ftadd)
  4354  052A  0842               	movf	(___ftadd@f2+1),w
  4355  052B  00BF               	movwf	(?___ftadd+1)
  4356  052C  0843               	movf	(___ftadd@f2+2),w
  4357  052D  00C0               	movwf	(?___ftadd+2)
  4358  052E  2E3D               	goto	l322
  4359                           opt subtitle "HI-TECH Software Omniscient Code Generator (Lite mode) build 49521"
  4360  052F                     l2075:	
  4361  052F  2E3D               	goto	l322
  4362                           opt subtitle "HI-TECH Software Omniscient Code Generator (Lite mode) build 49521"
  4363  0530                     l319:	
  4364                           opt subtitle "HI-TECH Software Omniscient Code Generator (Lite mode) build 49521"
  4365                           
  4366  0530                     l2077:	
  4367  0530  0849               	movf	(___ftadd@exp2),w
  4368  0531  1D03               	skipz
  4369  0532  2D34               	goto	u2280
  4370  0533  2D44               	goto	l325
  4371  0534                     u2280:
  4372                           opt subtitle "HI-TECH Software Omniscient Code Generator (Lite mode) build 49521"
  4373  0534                     l2079:	
  4374  0534  084A               	movf	(___ftadd@exp1),w
  4375  0535  0249               	subwf	(___ftadd@exp2),w
  4376  0536  1803               	skipnc
  4377  0537  2D39               	goto	u2291
  4378  0538  2D3A               	goto	u2290
  4379  0539                     u2291:
  4380  0539  2D45               	goto	l2083
  4381  053A                     u2290:
  4382                           opt subtitle "HI-TECH Software Omniscient Code Generator (Lite mode) build 49521"
  4383  053A                     l2081:	
  4384  053A  0349               	decf	(___ftadd@exp2),w
  4385  053B  3AFF               	xorlw	0ffh
  4386  053C  074A               	addwf	(___ftadd@exp1),w
  4387  053D  00C4               	movwf	(??___ftadd+0)+0
  4388  053E  3019               	movlw	(019h)
  4389  053F  0244               	subwf	0+(??___ftadd+0)+0,w
  4390  0540  1C03               	skipc
  4391  0541  2D43               	goto	u2301
  4392  0542  2D44               	goto	u2300
  4393  0543                     u2301:
  4394  0543  2D45               	goto	l2083
  4395  0544                     u2300:
  4396                           opt subtitle "HI-TECH Software Omniscient Code Generator (Lite mode) build 49521"
  4397  0544                     l325:	
  4398                           opt subtitle "HI-TECH Software Omniscient Code Generator (Lite mode) build 49521"
  4399  0544  2E3D               	goto	l322
  4400                           opt subtitle "HI-TECH Software Omniscient Code Generator (Lite mode) build 49521"
  4401  0545                     l323:	
  4402                           opt subtitle "HI-TECH Software Omniscient Code Generator (Lite mode) build 49521"
  4403                           
  4404  0545                     l2083:	
  4405  0545  3006               	movlw	(06h)
  4406  0546  00C4               	movwf	(??___ftadd+0)+0
  4407  0547  0844               	movf	(??___ftadd+0)+0,w
  4408  0548  00C8               	movwf	(___ftadd@sign)
  4409                           opt subtitle "HI-TECH Software Omniscient Code Generator (Lite mode) build 49521"
  4410                           
  4411  0549                     l2085:	
  4412  0549  1FC0               	btfss	(___ftadd@f1+2),(23)&7
  4413  054A  2D4C               	goto	u2311
  4414  054B  2D4D               	goto	u2310
  4415  054C                     u2311:
  4416  054C  2D4E               	goto	l326
  4417  054D                     u2310:
  4418                           opt subtitle "HI-TECH Software Omniscient Code Generator (Lite mode) build 49521"
  4419                           
  4420  054D                     l2087:	
  4421  054D  17C8               	bsf	(___ftadd@sign)+(7/8),(7)&7
  4422                           opt subtitle "HI-TECH Software Omniscient Code Generator (Lite mode) build 49521"
  4423  054E                     l326:	
  4424                           opt subtitle "HI-TECH Software Omniscient Code Generator (Lite mode) build 49521"
  4425  054E  1FC3               	btfss	(___ftadd@f2+2),(23)&7
  4426  054F  2D51               	goto	u2321
  4427  0550  2D52               	goto	u2320
  4428  0551                     u2321:
  4429  0551  2D53               	goto	l327
  4430  0552                     u2320:
  4431                           opt subtitle "HI-TECH Software Omniscient Code Generator (Lite mode) build 49521"
  4432                           
  4433  0552                     l2089:	
  4434  0552  1748               	bsf	(___ftadd@sign)+(6/8),(6)&7
  4435                           opt subtitle "HI-TECH Software Omniscient Code Generator (Lite mode) build 49521"
  4436  0553                     l327:	
  4437                           opt subtitle "HI-TECH Software Omniscient Code Generator (Lite mode) build 49521"
  4438  0553  17BF               	bsf	(___ftadd@f1)+(15/8),(15)&7
  4439                           opt subtitle "HI-TECH Software Omniscient Code Generator (Lite mode) build 49521"
  4440                           
  4441  0554                     l2091:	
  4442  0554  30FF               	movlw	0FFh
  4443  0555  05BE               	andwf	(___ftadd@f1),f
  4444  0556  30FF               	movlw	0FFh
  4445  0557  05BF               	andwf	(___ftadd@f1+1),f
  4446  0558  3000               	movlw	0
  4447  0559  05C0               	andwf	(___ftadd@f1+2),f
  4448                           opt subtitle "HI-TECH Software Omniscient Code Generator (Lite mode) build 49521"
  4449                           
  4450  055A                     l2093:	
  4451  055A  17C2               	bsf	(___ftadd@f2)+(15/8),(15)&7
  4452                           opt subtitle "HI-TECH Software Omniscient Code Generator (Lite mode) build 49521"
  4453  055B  30FF               	movlw	0FFh
  4454  055C  05C1               	andwf	(___ftadd@f2),f
  4455  055D  30FF               	movlw	0FFh
  4456  055E  05C2               	andwf	(___ftadd@f2+1),f
  4457  055F  3000               	movlw	0
  4458  0560  05C3               	andwf	(___ftadd@f2+2),f
  4459                           opt subtitle "HI-TECH Software Omniscient Code Generator (Lite mode) build 49521"
  4460  0561  0849               	movf	(___ftadd@exp2),w
  4461  0562  024A               	subwf	(___ftadd@exp1),w
  4462  0563  1803               	skipnc
  4463  0564  2D66               	goto	u2331
  4464  0565  2D67               	goto	u2330
  4465  0566                     u2331:
  4466  0566  2D98               	goto	l2105
  4467  0567                     u2330:
  4468  0567  2D68               	goto	l2095
  4469                           opt subtitle "HI-TECH Software Omniscient Code Generator (Lite mode) build 49521"
  4470                           
  4471  0568                     l329:	
  4472                           opt subtitle "HI-TECH Software Omniscient Code Generator (Lite mode) build 49521"
  4473                           
  4474  0568                     l2095:	
  4475  0568  3001               	movlw	01h
  4476  0569                     u2345:
  4477  0569  1003               	clrc
  4478  056A  0DC1               	rlf	(___ftadd@f2),f
  4479  056B  0DC2               	rlf	(___ftadd@f2+1),f
  4480  056C  0DC3               	rlf	(___ftadd@f2+2),f
  4481  056D  3EFF               	addlw	-1
  4482  056E  1D03               	skipz
  4483  056F  2D69               	goto	u2345
  4484                           opt subtitle "HI-TECH Software Omniscient Code Generator (Lite mode) build 49521"
  4485  0570  3001               	movlw	low(01h)
  4486  0571  02C9               	subwf	(___ftadd@exp2),f
  4487                           opt subtitle "HI-TECH Software Omniscient Code Generator (Lite mode) build 49521"
  4488                           
  4489  0572                     l2097:	
  4490  0572  0849               	movf	(___ftadd@exp2),w
  4491  0573  064A               	xorwf	(___ftadd@exp1),w
  4492  0574  1903               	skipnz
  4493  0575  2D77               	goto	u2351
  4494  0576  2D78               	goto	u2350
  4495  0577                     u2351:
  4496  0577  2D90               	goto	l2103
  4497  0578                     u2350:
  4498                           opt subtitle "HI-TECH Software Omniscient Code Generator (Lite mode) build 49521"
  4499  0578                     l2099:	
  4500  0578  3001               	movlw	low(01h)
  4501  0579  02C8               	subwf	(___ftadd@sign),f
  4502  057A  0848               	movf	((___ftadd@sign)),w
  4503  057B  3907               	andlw	07h
  4504  057C  1D03               	btfss	status,2
  4505  057D  2D7F               	goto	u2361
  4506  057E  2D80               	goto	u2360
  4507  057F                     u2361:
  4508  057F  2D68               	goto	l2095
  4509  0580                     u2360:
  4510  0580  2D90               	goto	l2103
  4511                           opt subtitle "HI-TECH Software Omniscient Code Generator (Lite mode) build 49521"
  4512  0581                     l331:	
  4513  0581  2D90               	goto	l2103
  4514                           opt subtitle "HI-TECH Software Omniscient Code Generator (Lite mode) build 49521"
  4515  0582                     l332:	
  4516                           opt subtitle "HI-TECH Software Omniscient Code Generator (Lite mode) build 49521"
  4517  0582  2D90               	goto	l2103
  4518                           opt subtitle "HI-TECH Software Omniscient Code Generator (Lite mode) build 49521"
  4519  0583                     l334:	
  4520                           opt subtitle "HI-TECH Software Omniscient Code Generator (Lite mode) build 49521"
  4521                           
  4522  0583                     l2101:	
  4523  0583  3001               	movlw	01h
  4524  0584                     u2375:
  4525  0584  1003               	clrc
  4526  0585  0CC0               	rrf	(___ftadd@f1+2),f
  4527  0586  0CBF               	rrf	(___ftadd@f1+1),f
  4528  0587  0CBE               	rrf	(___ftadd@f1),f
  4529  0588  3EFF               	addlw	-1
  4530  0589  1D03               	skipz
  4531  058A  2D84               	goto	u2375
  4532                           opt subtitle "HI-TECH Software Omniscient Code Generator (Lite mode) build 49521"
  4533                           
  4534  058B  3001               	movlw	(01h)
  4535  058C  00C4               	movwf	(??___ftadd+0)+0
  4536  058D  0844               	movf	(??___ftadd+0)+0,w
  4537  058E  07CA               	addwf	(___ftadd@exp1),f
  4538  058F  2D90               	goto	l2103
  4539                           opt subtitle "HI-TECH Software Omniscient Code Generator (Lite mode) build 49521"
  4540                           
  4541  0590                     l333:	
  4542                           opt subtitle "HI-TECH Software Omniscient Code Generator (Lite mode) build 49521"
  4543                           
  4544  0590                     l2103:	
  4545  0590  084A               	movf	(___ftadd@exp1),w
  4546  0591  0649               	xorwf	(___ftadd@exp2),w
  4547  0592  1D03               	skipz
  4548  0593  2D95               	goto	u2381
  4549  0594  2D96               	goto	u2380
  4550  0595                     u2381:
  4551  0595  2D83               	goto	l2101
  4552  0596                     u2380:
  4553  0596  2DCF               	goto	l336
  4554                           opt subtitle "HI-TECH Software Omniscient Code Generator (Lite mode) build 49521"
  4555  0597                     l335:	
  4556                           opt subtitle "HI-TECH Software Omniscient Code Generator (Lite mode) build 49521"
  4557  0597  2DCF               	goto	l336
  4558                           opt subtitle "HI-TECH Software Omniscient Code Generator (Lite mode) build 49521"
  4559  0598                     l328:	
  4560                           opt subtitle "HI-TECH Software Omniscient Code Generator (Lite mode) build 49521"
  4561  0598                     l2105:	
  4562  0598  084A               	movf	(___ftadd@exp1),w
  4563  0599  0249               	subwf	(___ftadd@exp2),w
  4564  059A  1803               	skipnc
  4565  059B  2D9D               	goto	u2391
  4566  059C  2D9E               	goto	u2390
  4567  059D                     u2391:
  4568  059D  2DCF               	goto	l336
  4569  059E                     u2390:
  4570  059E  2D9F               	goto	l2107
  4571                           opt subtitle "HI-TECH Software Omniscient Code Generator (Lite mode) build 49521"
  4572                           
  4573  059F                     l338:	
  4574                           opt subtitle "HI-TECH Software Omniscient Code Generator (Lite mode) build 49521"
  4575                           
  4576  059F                     l2107:	
  4577  059F  3001               	movlw	01h
  4578  05A0                     u2405:
  4579  05A0  1003               	clrc
  4580  05A1  0DBE               	rlf	(___ftadd@f1),f
  4581  05A2  0DBF               	rlf	(___ftadd@f1+1),f
  4582  05A3  0DC0               	rlf	(___ftadd@f1+2),f
  4583  05A4  3EFF               	addlw	-1
  4584  05A5  1D03               	skipz
  4585  05A6  2DA0               	goto	u2405
  4586                           opt subtitle "HI-TECH Software Omniscient Code Generator (Lite mode) build 49521"
  4587  05A7  3001               	movlw	low(01h)
  4588  05A8  02CA               	subwf	(___ftadd@exp1),f
  4589                           opt subtitle "HI-TECH Software Omniscient Code Generator (Lite mode) build 49521"
  4590                           
  4591  05A9                     l2109:	
  4592  05A9  0849               	movf	(___ftadd@exp2),w
  4593  05AA  064A               	xorwf	(___ftadd@exp1),w
  4594  05AB  1903               	skipnz
  4595  05AC  2DAE               	goto	u2411
  4596  05AD  2DAF               	goto	u2410
  4597  05AE                     u2411:
  4598  05AE  2DC7               	goto	l2115
  4599  05AF                     u2410:
  4600                           opt subtitle "HI-TECH Software Omniscient Code Generator (Lite mode) build 49521"
  4601  05AF                     l2111:	
  4602  05AF  3001               	movlw	low(01h)
  4603  05B0  02C8               	subwf	(___ftadd@sign),f
  4604  05B1  0848               	movf	((___ftadd@sign)),w
  4605  05B2  3907               	andlw	07h
  4606  05B3  1D03               	btfss	status,2
  4607  05B4  2DB6               	goto	u2421
  4608  05B5  2DB7               	goto	u2420
  4609  05B6                     u2421:
  4610  05B6  2D9F               	goto	l2107
  4611  05B7                     u2420:
  4612  05B7  2DC7               	goto	l2115
  4613                           opt subtitle "HI-TECH Software Omniscient Code Generator (Lite mode) build 49521"
  4614  05B8                     l340:	
  4615  05B8  2DC7               	goto	l2115
  4616                           opt subtitle "HI-TECH Software Omniscient Code Generator (Lite mode) build 49521"
  4617  05B9                     l341:	
  4618                           opt subtitle "HI-TECH Software Omniscient Code Generator (Lite mode) build 49521"
  4619  05B9  2DC7               	goto	l2115
  4620                           opt subtitle "HI-TECH Software Omniscient Code Generator (Lite mode) build 49521"
  4621  05BA                     l343:	
  4622                           opt subtitle "HI-TECH Software Omniscient Code Generator (Lite mode) build 49521"
  4623                           
  4624  05BA                     l2113:	
  4625  05BA  3001               	movlw	01h
  4626  05BB                     u2435:
  4627  05BB  1003               	clrc
  4628  05BC  0CC3               	rrf	(___ftadd@f2+2),f
  4629  05BD  0CC2               	rrf	(___ftadd@f2+1),f
  4630  05BE  0CC1               	rrf	(___ftadd@f2),f
  4631  05BF  3EFF               	addlw	-1
  4632  05C0  1D03               	skipz
  4633  05C1  2DBB               	goto	u2435
  4634                           opt subtitle "HI-TECH Software Omniscient Code Generator (Lite mode) build 49521"
  4635                           
  4636  05C2  3001               	movlw	(01h)
  4637  05C3  00C4               	movwf	(??___ftadd+0)+0
  4638  05C4  0844               	movf	(??___ftadd+0)+0,w
  4639  05C5  07C9               	addwf	(___ftadd@exp2),f
  4640  05C6  2DC7               	goto	l2115
  4641                           opt subtitle "HI-TECH Software Omniscient Code Generator (Lite mode) build 49521"
  4642                           
  4643  05C7                     l342:	
  4644                           opt subtitle "HI-TECH Software Omniscient Code Generator (Lite mode) build 49521"
  4645                           
  4646  05C7                     l2115:	
  4647  05C7  084A               	movf	(___ftadd@exp1),w
  4648  05C8  0649               	xorwf	(___ftadd@exp2),w
  4649  05C9  1D03               	skipz
  4650  05CA  2DCC               	goto	u2441
  4651  05CB  2DCD               	goto	u2440
  4652  05CC                     u2441:
  4653  05CC  2DBA               	goto	l2113
  4654  05CD                     u2440:
  4655  05CD  2DCF               	goto	l336
  4656                           opt subtitle "HI-TECH Software Omniscient Code Generator (Lite mode) build 49521"
  4657  05CE                     l344:	
  4658  05CE  2DCF               	goto	l336
  4659                           opt subtitle "HI-TECH Software Omniscient Code Generator (Lite mode) build 49521"
  4660                           
  4661  05CF                     l337:	
  4662                           opt subtitle "HI-TECH Software Omniscient Code Generator (Lite mode) build 49521"
  4663                           
  4664  05CF                     l336:	
  4665  05CF  1FC8               	btfss	(___ftadd@sign),(7)&7
  4666  05D0  2DD2               	goto	u2451
  4667  05D1  2DD3               	goto	u2450
  4668  05D2                     u2451:
  4669  05D2  2DE4               	goto	l2119
  4670  05D3                     u2450:
  4671                           opt subtitle "HI-TECH Software Omniscient Code Generator (Lite mode) build 49521"
  4672                           
  4673  05D3                     l2117:	
  4674  05D3  30FF               	movlw	0FFh
  4675  05D4  06BE               	xorwf	(___ftadd@f1),f
  4676  05D5  30FF               	movlw	0FFh
  4677  05D6  06BF               	xorwf	(___ftadd@f1+1),f
  4678  05D7  30FF               	movlw	0FFh
  4679  05D8  06C0               	xorwf	(___ftadd@f1+2),f
  4680                           opt subtitle "HI-TECH Software Omniscient Code Generator (Lite mode) build 49521"
  4681  05D9  3001               	movlw	01h
  4682  05DA  07BE               	addwf	(___ftadd@f1),f
  4683  05DB  3000               	movlw	0
  4684  05DC  1803               	skipnc
  4685  05DD  3001               movlw 1
  4686  05DE  07BF               	addwf	(___ftadd@f1+1),f
  4687  05DF  3000               	movlw	0
  4688  05E0  1803               	skipnc
  4689  05E1  3001               movlw 1
  4690  05E2  07C0               	addwf	(___ftadd@f1+2),f
  4691  05E3  2DE4               	goto	l2119
  4692                           opt subtitle "HI-TECH Software Omniscient Code Generator (Lite mode) build 49521"
  4693                           
  4694  05E4                     l345:	
  4695                           opt subtitle "HI-TECH Software Omniscient Code Generator (Lite mode) build 49521"
  4696                           
  4697  05E4                     l2119:	
  4698  05E4  1F48               	btfss	(___ftadd@sign),(6)&7
  4699  05E5  2DE7               	goto	u2461
  4700  05E6  2DE8               	goto	u2460
  4701  05E7                     u2461:
  4702  05E7  2DF9               	goto	l2123
  4703  05E8                     u2460:
  4704                           opt subtitle "HI-TECH Software Omniscient Code Generator (Lite mode) build 49521"
  4705                           
  4706  05E8                     l2121:	
  4707  05E8  30FF               	movlw	0FFh
  4708  05E9  06C1               	xorwf	(___ftadd@f2),f
  4709  05EA  30FF               	movlw	0FFh
  4710  05EB  06C2               	xorwf	(___ftadd@f2+1),f
  4711  05EC  30FF               	movlw	0FFh
  4712  05ED  06C3               	xorwf	(___ftadd@f2+2),f
  4713                           opt subtitle "HI-TECH Software Omniscient Code Generator (Lite mode) build 49521"
  4714  05EE  3001               	movlw	01h
  4715  05EF  07C1               	addwf	(___ftadd@f2),f
  4716  05F0  3000               	movlw	0
  4717  05F1  1803               	skipnc
  4718  05F2  3001               movlw 1
  4719  05F3  07C2               	addwf	(___ftadd@f2+1),f
  4720  05F4  3000               	movlw	0
  4721  05F5  1803               	skipnc
  4722  05F6  3001               movlw 1
  4723  05F7  07C3               	addwf	(___ftadd@f2+2),f
  4724  05F8  2DF9               	goto	l2123
  4725                           opt subtitle "HI-TECH Software Omniscient Code Generator (Lite mode) build 49521"
  4726                           
  4727  05F9                     l346:	
  4728                           opt subtitle "HI-TECH Software Omniscient Code Generator (Lite mode) build 49521"
  4729                           
  4730  05F9                     l2123:	
  4731  05F9  01C8               	clrf	(___ftadd@sign)
  4732                           opt subtitle "HI-TECH Software Omniscient Code Generator (Lite mode) build 49521"
  4733  05FA  083E               	movf	(___ftadd@f1),w
  4734  05FB  07C1               	addwf	(___ftadd@f2),f
  4735  05FC  083F               	movf	(___ftadd@f1+1),w
  4736  05FD  1103               	clrz
  4737  05FE  1803               	skipnc
  4738  05FF  0A3F               	incf	(___ftadd@f1+1),w
  4739  0600  1903               	skipnz
  4740  0601  2E03               	goto	u2471
  4741  0602  07C2               	addwf	(___ftadd@f2+1),f
  4742  0603                     u2471:
  4743  0603  0840               	movf	(___ftadd@f1+2),w
  4744  0604  1103               	clrz
  4745  0605  1803               	skipnc
  4746  0606  0A40               	incf	(___ftadd@f1+2),w
  4747  0607  1903               	skipnz
  4748  0608  2E0A               	goto	u2472
  4749  0609  07C3               	addwf	(___ftadd@f2+2),f
  4750  060A                     u2472:
  4751                           opt subtitle "HI-TECH Software Omniscient Code Generator (Lite mode) build 49521"
  4752                           
  4753                           opt pagewidth 120
  4754  060A                     l2125:	
  4755  060A  1FC3               	btfss	(___ftadd@f2+2),(23)&7
  4756  060B  2E0D               	goto	u2481
  4757  060C  2E0E               	goto	u2480
  4758  060D                     u2481:
  4759  060D  2E21               	goto	l2131
  4760  060E                     u2480:
  4761                           opt subtitle "HI-TECH Software Omniscient Code Generator (Lite mode) build 49521"
  4762                           
  4763  060E                     l2127:	
  4764  060E  30FF               	movlw	0FFh
  4765  060F  06C1               	xorwf	(___ftadd@f2),f
  4766  0610  30FF               	movlw	0FFh
  4767  0611  06C2               	xorwf	(___ftadd@f2+1),f
  4768  0612  30FF               	movlw	0FFh
  4769  0613  06C3               	xorwf	(___ftadd@f2+2),f
  4770                           opt subtitle "HI-TECH Software Omniscient Code Generator (Lite mode) build 49521"
  4771  0614  3001               	movlw	01h
  4772  0615  07C1               	addwf	(___ftadd@f2),f
  4773  0616  3000               	movlw	0
  4774  0617  1803               	skipnc
  4775  0618  3001               movlw 1
  4776  0619  07C2               	addwf	(___ftadd@f2+1),f
  4777  061A  3000               	movlw	0
  4778  061B  1803               	skipnc
  4779  061C  3001               movlw 1
  4780  061D  07C3               	addwf	(___ftadd@f2+2),f
  4781                           opt subtitle "HI-TECH Software Omniscient Code Generator (Lite mode) build 49521"
  4782                           
  4783  061E                     l2129:	
  4784  061E  01C8               	clrf	(___ftadd@sign)
  4785  061F  0AC8               	incf	(___ftadd@sign),f
  4786  0620  2E21               	goto	l2131
  4787                           opt subtitle "HI-TECH Software Omniscient Code Generator (Lite mode) build 49521"
  4788                           
  4789  0621                     l347:	
  4790                           opt subtitle "HI-TECH Software Omniscient Code Generator (Lite mode) build 49521"
  4791                           
  4792  0621                     l2131:	
  4793  0621  0841               	movf	(___ftadd@f2),w
  4794  0622  00F0               	movwf	(?___ftpack)
  4795  0623  0842               	movf	(___ftadd@f2+1),w
  4796  0624  00F1               	movwf	(?___ftpack+1)
  4797  0625  0843               	movf	(___ftadd@f2+2),w
  4798  0626  00F2               	movwf	(?___ftpack+2)
  4799  0627  084A               	movf	(___ftadd@exp1),w
  4800  0628  00C4               	movwf	(??___ftadd+0)+0
  4801  0629  0844               	movf	(??___ftadd+0)+0,w
  4802  062A  00F3               	movwf	0+(?___ftpack)+03h
  4803  062B  0848               	movf	(___ftadd@sign),w
  4804  062C  00C5               	movwf	(??___ftadd+1)+0
  4805  062D  0845               	movf	(??___ftadd+1)+0,w
  4806  062E  00F4               	movwf	0+(?___ftpack)+04h
  4807  062F  120A  158A  2785   	fcall	___ftpack
              120A  118A         
  4808  0634  0870               	movf	(0+(?___ftpack)),w
  4809  0635  1283               	bcf	status, 5	;RP0=0, select bank0
  4810  0636  1303               	bcf	status, 6	;RP1=0, select bank0
  4811  0637  00BE               	movwf	(?___ftadd)
  4812  0638  0871               	movf	(1+(?___ftpack)),w
  4813  0639  00BF               	movwf	(?___ftadd+1)
  4814  063A  0872               	movf	(2+(?___ftpack)),w
  4815  063B  00C0               	movwf	(?___ftadd+2)
  4816  063C  2E3D               	goto	l322
  4817                           opt subtitle "HI-TECH Software Omniscient Code Generator (Lite mode) build 49521"
  4818  063D                     l2133:	
  4819                           opt subtitle "HI-TECH Software Omniscient Code Generator (Lite mode) build 49521"
  4820                           
  4821  063D                     l322:	
  4822  063D  0008               	return
  4823                           opt subtitle "HI-TECH Software Omniscient Code Generator (Lite mode) build 49521"
  4824                           
  4825  063E                     	__end_of___ftadd:
  4826                           opt subtitle "HI-TECH Software Omniscient Code Generator (Lite mode) build 49521"
  4827                           
  4828                           opt pagewidth 120
  4829                           
  4830                           	opt lm
  4831                           
  4832                           	processor	16F887
  4833                           clrc	macro
  4834                           	bcf	3,0
  4835                           	endm
  4836                           clrz	macro
  4837                           	bcf	3,2
  4838                           	endm
  4839                           setc	macro
  4840                           	bsf	3,0
  4841                           	endm
  4842                           setz	macro
  4843                           	bsf	3,2
  4844                           	endm
  4845                           skipc	macro
  4846                           	btfss	3,0
  4847                           	endm
  4848                           skipz	macro
  4849                           	btfss	3,2
  4850                           	endm
  4851                           skipnc	macro
  4852                           	btfsc	3,0
  4853                           	endm
  4854                           skipnz	macro
  4855                           	btfsc	3,2
  4856                           	endm
  4857                           indf	equ	0
  4858                           indf0	equ	0
  4859                           pc	equ	2
  4860                           pcl	equ	2
  4861                           status	equ	3
  4862                           fsr	equ	4
  4863                           fsr0	equ	4
  4864  033B                     __ptext460:	;psect for function ___ftdiv
  4865                           opt subtitle "HI-TECH Software Omniscient Code Generator (Lite mode) build 49521"
  4866                           
  4867                           opt pagewidth 120
  4868                           
  4869  00C8                     	__size_of___ftdiv	equ	__end_of___ftdiv-___ftdiv
  4870                           opt subtitle "HI-TECH Software Omniscient Code Generator (Lite mode) build 49521"
  4871  033B                     ___ftdiv:	
  4872                           opt subtitle "HI-TECH Software Omniscient Code Generator (Lite mode) build 49521"
  4873                           
  4874                           opt pagewidth 120
  4875                           
  4876  033B                     l1977:	
  4877  033B  1283               	bcf	status, 5	;RP0=0, select bank0
  4878  033C  1303               	bcf	status, 6	;RP1=0, select bank0
  4879  033D  0831               	movf	(___ftdiv@f1),w
  4880  033E  00B4               	movwf	((??___ftdiv+0)+0)
  4881  033F  0832               	movf	(___ftdiv@f1+1),w
  4882  0340  00B5               	movwf	((??___ftdiv+0)+0+1)
  4883  0341  0833               	movf	(___ftdiv@f1+2),w
  4884  0342  00B6               	movwf	((??___ftdiv+0)+0+2)
  4885  0343  1003               	clrc
  4886  0344  0D35               	rlf	(??___ftdiv+0)+1,w
  4887  0345  0D36               	rlf	(??___ftdiv+0)+2,w
  4888  0346  00B7               	movwf	(??___ftdiv+3)+0
  4889  0347  0837               	movf	(??___ftdiv+3)+0,w
  4890  0348  00BC               	movwf	(___ftdiv@exp)
  4891  0349  08BC               	movf	((___ftdiv@exp)),f
  4892  034A  1D03               	skipz
  4893  034B  2B4D               	goto	u2091
  4894  034C  2B4E               	goto	u2090
  4895  034D                     u2091:
  4896  034D  2B56               	goto	l1983
  4897  034E                     u2090:
  4898                           opt subtitle "HI-TECH Software Omniscient Code Generator (Lite mode) build 49521"
  4899                           
  4900  034E                     l1979:	
  4901  034E  3000               	movlw	0x0
  4902  034F  00AE               	movwf	(?___ftdiv)
  4903  0350  3000               	movlw	0x0
  4904  0351  00AF               	movwf	(?___ftdiv+1)
  4905  0352  3000               	movlw	0x0
  4906  0353  00B0               	movwf	(?___ftdiv+2)
  4907  0354  2C02               	goto	l364
  4908                           opt subtitle "HI-TECH Software Omniscient Code Generator (Lite mode) build 49521"
  4909  0355                     l1981:	
  4910  0355  2C02               	goto	l364
  4911                           opt subtitle "HI-TECH Software Omniscient Code Generator (Lite mode) build 49521"
  4912  0356                     l363:	
  4913                           opt subtitle "HI-TECH Software Omniscient Code Generator (Lite mode) build 49521"
  4914                           
  4915  0356                     l1983:	
  4916  0356  082E               	movf	(___ftdiv@f2),w
  4917  0357  00B4               	movwf	((??___ftdiv+0)+0)
  4918  0358  082F               	movf	(___ftdiv@f2+1),w
  4919  0359  00B5               	movwf	((??___ftdiv+0)+0+1)
  4920  035A  0830               	movf	(___ftdiv@f2+2),w
  4921  035B  00B6               	movwf	((??___ftdiv+0)+0+2)
  4922  035C  1003               	clrc
  4923  035D  0D35               	rlf	(??___ftdiv+0)+1,w
  4924  035E  0D36               	rlf	(??___ftdiv+0)+2,w
  4925  035F  00B7               	movwf	(??___ftdiv+3)+0
  4926  0360  0837               	movf	(??___ftdiv+3)+0,w
  4927  0361  00BD               	movwf	(___ftdiv@sign)
  4928  0362  08BD               	movf	((___ftdiv@sign)),f
  4929  0363  1D03               	skipz
  4930  0364  2B66               	goto	u2101
  4931  0365  2B67               	goto	u2100
  4932  0366                     u2101:
  4933  0366  2B6F               	goto	l1989
  4934  0367                     u2100:
  4935                           opt subtitle "HI-TECH Software Omniscient Code Generator (Lite mode) build 49521"
  4936                           
  4937  0367                     l1985:	
  4938  0367  3000               	movlw	0x0
  4939  0368  00AE               	movwf	(?___ftdiv)
  4940  0369  3000               	movlw	0x0
  4941  036A  00AF               	movwf	(?___ftdiv+1)
  4942  036B  3000               	movlw	0x0
  4943  036C  00B0               	movwf	(?___ftdiv+2)
  4944  036D  2C02               	goto	l364
  4945                           opt subtitle "HI-TECH Software Omniscient Code Generator (Lite mode) build 49521"
  4946  036E                     l1987:	
  4947  036E  2C02               	goto	l364
  4948                           opt subtitle "HI-TECH Software Omniscient Code Generator (Lite mode) build 49521"
  4949  036F                     l365:	
  4950                           opt subtitle "HI-TECH Software Omniscient Code Generator (Lite mode) build 49521"
  4951                           
  4952  036F                     l1989:	
  4953  036F  3000               	movlw	0
  4954  0370  00B9               	movwf	(___ftdiv@f3)
  4955  0371  3000               	movlw	0
  4956  0372  00BA               	movwf	(___ftdiv@f3+1)
  4957  0373  3000               	movlw	0
  4958  0374  00BB               	movwf	(___ftdiv@f3+2)
  4959                           opt subtitle "HI-TECH Software Omniscient Code Generator (Lite mode) build 49521"
  4960                           
  4961  0375                     l1991:	
  4962  0375  3089               	movlw	(089h)
  4963  0376  073D               	addwf	(___ftdiv@sign),w
  4964  0377  00B4               	movwf	(??___ftdiv+0)+0
  4965  0378  0834               	movf	0+(??___ftdiv+0)+0,w
  4966  0379  02BC               	subwf	(___ftdiv@exp),f
  4967                           opt subtitle "HI-TECH Software Omniscient Code Generator (Lite mode) build 49521"
  4968                           
  4969  037A                     l1993:	
  4970  037A  0831               	movf	(___ftdiv@f1),w
  4971  037B  00B4               	movwf	((??___ftdiv+0)+0)
  4972  037C  0832               	movf	(___ftdiv@f1+1),w
  4973  037D  00B5               	movwf	((??___ftdiv+0)+0+1)
  4974  037E  0833               	movf	(___ftdiv@f1+2),w
  4975  037F  00B6               	movwf	((??___ftdiv+0)+0+2)
  4976  0380  3010               	movlw	010h
  4977  0381                     u2115:
  4978  0381  1003               	clrc
  4979  0382  0CB6               	rrf	(??___ftdiv+0)+2,f
  4980  0383  0CB5               	rrf	(??___ftdiv+0)+1,f
  4981  0384  0CB4               	rrf	(??___ftdiv+0)+0,f
  4982  0385                     u2110:
  4983  0385  3EFF               	addlw	-1
  4984  0386  1D03               	skipz
  4985  0387  2B81               	goto	u2115
  4986  0388  0834               	movf	0+(??___ftdiv+0)+0,w
  4987  0389  00B7               	movwf	(??___ftdiv+3)+0
  4988  038A  0837               	movf	(??___ftdiv+3)+0,w
  4989  038B  00BD               	movwf	(___ftdiv@sign)
  4990                           opt subtitle "HI-TECH Software Omniscient Code Generator (Lite mode) build 49521"
  4991                           
  4992  038C                     l1995:	
  4993  038C  082E               	movf	(___ftdiv@f2),w
  4994  038D  00B4               	movwf	((??___ftdiv+0)+0)
  4995  038E  082F               	movf	(___ftdiv@f2+1),w
  4996  038F  00B5               	movwf	((??___ftdiv+0)+0+1)
  4997  0390  0830               	movf	(___ftdiv@f2+2),w
  4998  0391  00B6               	movwf	((??___ftdiv+0)+0+2)
  4999  0392  3010               	movlw	010h
  5000  0393                     u2125:
  5001  0393  1003               	clrc
  5002  0394  0CB6               	rrf	(??___ftdiv+0)+2,f
  5003  0395  0CB5               	rrf	(??___ftdiv+0)+1,f
  5004  0396  0CB4               	rrf	(??___ftdiv+0)+0,f
  5005  0397                     u2120:
  5006  0397  3EFF               	addlw	-1
  5007  0398  1D03               	skipz
  5008  0399  2B93               	goto	u2125
  5009  039A  0834               	movf	0+(??___ftdiv+0)+0,w
  5010  039B  00B7               	movwf	(??___ftdiv+3)+0
  5011  039C  0837               	movf	(??___ftdiv+3)+0,w
  5012  039D  06BD               	xorwf	(___ftdiv@sign),f
  5013                           opt subtitle "HI-TECH Software Omniscient Code Generator (Lite mode) build 49521"
  5014                           
  5015  039E                     l1997:	
  5016  039E  3080               	movlw	(080h)
  5017  039F  00B4               	movwf	(??___ftdiv+0)+0
  5018  03A0  0834               	movf	(??___ftdiv+0)+0,w
  5019  03A1  05BD               	andwf	(___ftdiv@sign),f
  5020                           opt subtitle "HI-TECH Software Omniscient Code Generator (Lite mode) build 49521"
  5021                           
  5022  03A2                     l1999:	
  5023  03A2  17B2               	bsf	(___ftdiv@f1)+(15/8),(15)&7
  5024                           opt subtitle "HI-TECH Software Omniscient Code Generator (Lite mode) build 49521"
  5025  03A3  30FF               	movlw	0FFh
  5026  03A4  05B1               	andwf	(___ftdiv@f1),f
  5027  03A5  30FF               	movlw	0FFh
  5028  03A6  05B2               	andwf	(___ftdiv@f1+1),f
  5029  03A7  3000               	movlw	0
  5030  03A8  05B3               	andwf	(___ftdiv@f1+2),f
  5031                           opt subtitle "HI-TECH Software Omniscient Code Generator (Lite mode) build 49521"
  5032                           
  5033  03A9                     l2001:	
  5034  03A9  17AF               	bsf	(___ftdiv@f2)+(15/8),(15)&7
  5035                           opt subtitle "HI-TECH Software Omniscient Code Generator (Lite mode) build 49521"
  5036  03AA  30FF               	movlw	0FFh
  5037  03AB  05AE               	andwf	(___ftdiv@f2),f
  5038  03AC  30FF               	movlw	0FFh
  5039  03AD  05AF               	andwf	(___ftdiv@f2+1),f
  5040  03AE  3000               	movlw	0
  5041  03AF  05B0               	andwf	(___ftdiv@f2+2),f
  5042                           opt subtitle "HI-TECH Software Omniscient Code Generator (Lite mode) build 49521"
  5043  03B0  3018               	movlw	(018h)
  5044  03B1  00B4               	movwf	(??___ftdiv+0)+0
  5045  03B2  0834               	movf	(??___ftdiv+0)+0,w
  5046  03B3  00B8               	movwf	(___ftdiv@cntr)
  5047  03B4  2BB5               	goto	l2003
  5048                           opt subtitle "HI-TECH Software Omniscient Code Generator (Lite mode) build 49521"
  5049                           
  5050  03B5                     l366:	
  5051                           opt subtitle "HI-TECH Software Omniscient Code Generator (Lite mode) build 49521"
  5052                           
  5053  03B5                     l2003:	
  5054  03B5  3001               	movlw	01h
  5055  03B6                     u2135:
  5056  03B6  1003               	clrc
  5057  03B7  0DB9               	rlf	(___ftdiv@f3),f
  5058  03B8  0DBA               	rlf	(___ftdiv@f3+1),f
  5059  03B9  0DBB               	rlf	(___ftdiv@f3+2),f
  5060  03BA  3EFF               	addlw	-1
  5061  03BB  1D03               	skipz
  5062  03BC  2BB6               	goto	u2135
  5063                           opt subtitle "HI-TECH Software Omniscient Code Generator (Lite mode) build 49521"
  5064                           
  5065  03BD                     l2005:	
  5066  03BD  0830               	movf	(___ftdiv@f2+2),w
  5067  03BE  0233               	subwf	(___ftdiv@f1+2),w
  5068  03BF  1D03               	skipz
  5069  03C0  2BC7               	goto	u2145
  5070  03C1  082F               	movf	(___ftdiv@f2+1),w
  5071  03C2  0232               	subwf	(___ftdiv@f1+1),w
  5072  03C3  1D03               	skipz
  5073  03C4  2BC7               	goto	u2145
  5074  03C5  082E               	movf	(___ftdiv@f2),w
  5075  03C6  0231               	subwf	(___ftdiv@f1),w
  5076  03C7                     u2145:
  5077  03C7  1C03               	skipc
  5078  03C8  2BCA               	goto	u2141
  5079  03C9  2BCB               	goto	u2140
  5080  03CA                     u2141:
  5081  03CA  2BD7               	goto	l2011
  5082  03CB                     u2140:
  5083                           opt subtitle "HI-TECH Software Omniscient Code Generator (Lite mode) build 49521"
  5084                           
  5085  03CB                     l2007:	
  5086  03CB  082E               	movf	(___ftdiv@f2),w
  5087  03CC  02B1               	subwf	(___ftdiv@f1),f
  5088  03CD  082F               	movf	(___ftdiv@f2+1),w
  5089  03CE  1C03               	skipc
  5090  03CF  0F2F               	incfsz	(___ftdiv@f2+1),w
  5091  03D0  02B2               	subwf	(___ftdiv@f1+1),f
  5092  03D1  0830               	movf	(___ftdiv@f2+2),w
  5093  03D2  1C03               	skipc
  5094  03D3  0A30               	incf	(___ftdiv@f2+2),w
  5095  03D4  02B3               	subwf	(___ftdiv@f1+2),f
  5096                           opt subtitle "HI-TECH Software Omniscient Code Generator (Lite mode) build 49521"
  5097                           
  5098  03D5                     l2009:	
  5099  03D5  1439               	bsf	(___ftdiv@f3)+(0/8),(0)&7
  5100  03D6  2BD7               	goto	l2011
  5101                           opt subtitle "HI-TECH Software Omniscient Code Generator (Lite mode) build 49521"
  5102                           
  5103  03D7                     l367:	
  5104                           opt subtitle "HI-TECH Software Omniscient Code Generator (Lite mode) build 49521"
  5105                           
  5106  03D7                     l2011:	
  5107  03D7  3001               	movlw	01h
  5108  03D8                     u2155:
  5109  03D8  1003               	clrc
  5110  03D9  0DB1               	rlf	(___ftdiv@f1),f
  5111  03DA  0DB2               	rlf	(___ftdiv@f1+1),f
  5112  03DB  0DB3               	rlf	(___ftdiv@f1+2),f
  5113  03DC  3EFF               	addlw	-1
  5114  03DD  1D03               	skipz
  5115  03DE  2BD8               	goto	u2155
  5116                           opt subtitle "HI-TECH Software Omniscient Code Generator (Lite mode) build 49521"
  5117                           
  5118  03DF                     l2013:	
  5119  03DF  3001               	movlw	low(01h)
  5120  03E0  02B8               	subwf	(___ftdiv@cntr),f
  5121  03E1  1D03               	btfss	status,2
  5122  03E2  2BE4               	goto	u2161
  5123  03E3  2BE5               	goto	u2160
  5124  03E4                     u2161:
  5125  03E4  2BB5               	goto	l2003
  5126  03E5                     u2160:
  5127  03E5  2BE6               	goto	l2015
  5128                           opt subtitle "HI-TECH Software Omniscient Code Generator (Lite mode) build 49521"
  5129  03E6                     l368:	
  5130                           opt subtitle "HI-TECH Software Omniscient Code Generator (Lite mode) build 49521"
  5131                           
  5132  03E6                     l2015:	
  5133  03E6  0839               	movf	(___ftdiv@f3),w
  5134  03E7  00F0               	movwf	(?___ftpack)
  5135  03E8  083A               	movf	(___ftdiv@f3+1),w
  5136  03E9  00F1               	movwf	(?___ftpack+1)
  5137  03EA  083B               	movf	(___ftdiv@f3+2),w
  5138  03EB  00F2               	movwf	(?___ftpack+2)
  5139  03EC  083C               	movf	(___ftdiv@exp),w
  5140  03ED  00B4               	movwf	(??___ftdiv+0)+0
  5141  03EE  0834               	movf	(??___ftdiv+0)+0,w
  5142  03EF  00F3               	movwf	0+(?___ftpack)+03h
  5143  03F0  083D               	movf	(___ftdiv@sign),w
  5144  03F1  00B5               	movwf	(??___ftdiv+1)+0
  5145  03F2  0835               	movf	(??___ftdiv+1)+0,w
  5146  03F3  00F4               	movwf	0+(?___ftpack)+04h
  5147  03F4  120A  158A  2785   	fcall	___ftpack
              120A  118A         
  5148  03F9  0870               	movf	(0+(?___ftpack)),w
  5149  03FA  1283               	bcf	status, 5	;RP0=0, select bank0
  5150  03FB  1303               	bcf	status, 6	;RP1=0, select bank0
  5151  03FC  00AE               	movwf	(?___ftdiv)
  5152  03FD  0871               	movf	(1+(?___ftpack)),w
  5153  03FE  00AF               	movwf	(?___ftdiv+1)
  5154  03FF  0872               	movf	(2+(?___ftpack)),w
  5155  0400  00B0               	movwf	(?___ftdiv+2)
  5156  0401  2C02               	goto	l364
  5157                           opt subtitle "HI-TECH Software Omniscient Code Generator (Lite mode) build 49521"
  5158  0402                     l2017:	
  5159                           opt subtitle "HI-TECH Software Omniscient Code Generator (Lite mode) build 49521"
  5160                           
  5161  0402                     l364:	
  5162  0402  0008               	return
  5163                           opt subtitle "HI-TECH Software Omniscient Code Generator (Lite mode) build 49521"
  5164                           
  5165  0403                     	__end_of___ftdiv:
  5166                           opt subtitle "HI-TECH Software Omniscient Code Generator (Lite mode) build 49521"
  5167                           
  5168                           opt pagewidth 120
  5169                           
  5170                           	opt lm
  5171                           
  5172                           	processor	16F887
  5173                           clrc	macro
  5174                           	bcf	3,0
  5175                           	endm
  5176                           clrz	macro
  5177                           	bcf	3,2
  5178                           	endm
  5179                           setc	macro
  5180                           	bsf	3,0
  5181                           	endm
  5182                           setz	macro
  5183                           	bsf	3,2
  5184                           	endm
  5185                           skipc	macro
  5186                           	btfss	3,0
  5187                           	endm
  5188                           skipz	macro
  5189                           	btfss	3,2
  5190                           	endm
  5191                           skipnc	macro
  5192                           	btfsc	3,0
  5193                           	endm
  5194                           skipnz	macro
  5195                           	btfsc	3,2
  5196                           	endm
  5197                           indf	equ	0
  5198                           indf0	equ	0
  5199                           pc	equ	2
  5200                           pcl	equ	2
  5201  0295                     __ptext461:	;psect for function ___fttol
  5202                           opt subtitle "HI-TECH Software Omniscient Code Generator (Lite mode) build 49521"
  5203                           
  5204                           opt pagewidth 120
  5205                           
  5206  00A6                     	__size_of___fttol	equ	__end_of___fttol-___fttol
  5207                           opt subtitle "HI-TECH Software Omniscient Code Generator (Lite mode) build 49521"
  5208  0295                     ___fttol:	
  5209                           opt subtitle "HI-TECH Software Omniscient Code Generator (Lite mode) build 49521"
  5210                           
  5211                           opt pagewidth 120
  5212                           
  5213  0295                     l1861:	
  5214  0295  0878               	movf	(___fttol@f1),w
  5215  0296  1283               	bcf	status, 5	;RP0=0, select bank0
  5216  0297  1303               	bcf	status, 6	;RP1=0, select bank0
  5217  0298  00A0               	movwf	((??___fttol+0)+0)
  5218  0299  0879               	movf	(___fttol@f1+1),w
  5219  029A  00A1               	movwf	((??___fttol+0)+0+1)
  5220  029B  087A               	movf	(___fttol@f1+2),w
  5221  029C  00A2               	movwf	((??___fttol+0)+0+2)
  5222  029D  1003               	clrc
  5223  029E  0D21               	rlf	(??___fttol+0)+1,w
  5224  029F  0D22               	rlf	(??___fttol+0)+2,w
  5225  02A0  00A3               	movwf	(??___fttol+3)+0
  5226  02A1  0823               	movf	(??___fttol+3)+0,w
  5227  02A2  00A9               	movwf	(___fttol@exp1)
  5228  02A3  08A9               	movf	((___fttol@exp1)),f
  5229  02A4  1D03               	skipz
  5230  02A5  2AA7               	goto	u1851
  5231  02A6  2AA8               	goto	u1850
  5232  02A7                     u1851:
  5233  02A7  2AB2               	goto	l1867
  5234  02A8                     u1850:
  5235                           opt subtitle "HI-TECH Software Omniscient Code Generator (Lite mode) build 49521"
  5236                           
  5237  02A8                     l1863:	
  5238  02A8  3000               	movlw	0
  5239  02A9  00FB               	movwf	(?___fttol+3)
  5240  02AA  3000               	movlw	0
  5241  02AB  00FA               	movwf	(?___fttol+2)
  5242  02AC  3000               	movlw	0
  5243  02AD  00F9               	movwf	(?___fttol+1)
  5244  02AE  3000               	movlw	0
  5245  02AF  00F8               	movwf	(?___fttol)
  5246                           opt subtitle "HI-TECH Software Omniscient Code Generator (Lite mode) build 49521"
  5247  02B0  2B3A               	goto	l385
  5248                           opt subtitle "HI-TECH Software Omniscient Code Generator (Lite mode) build 49521"
  5249  02B1                     l1865:	
  5250  02B1  2B3A               	goto	l385
  5251                           opt subtitle "HI-TECH Software Omniscient Code Generator (Lite mode) build 49521"
  5252  02B2                     l384:	
  5253                           opt subtitle "HI-TECH Software Omniscient Code Generator (Lite mode) build 49521"
  5254                           
  5255  02B2                     l1867:	
  5256  02B2  0878               	movf	(___fttol@f1),w
  5257  02B3  00A0               	movwf	((??___fttol+0)+0)
  5258  02B4  0879               	movf	(___fttol@f1+1),w
  5259  02B5  00A1               	movwf	((??___fttol+0)+0+1)
  5260  02B6  087A               	movf	(___fttol@f1+2),w
  5261  02B7  00A2               	movwf	((??___fttol+0)+0+2)
  5262  02B8  3017               	movlw	017h
  5263  02B9                     u1865:
  5264  02B9  1003               	clrc
  5265  02BA  0CA2               	rrf	(??___fttol+0)+2,f
  5266  02BB  0CA1               	rrf	(??___fttol+0)+1,f
  5267  02BC  0CA0               	rrf	(??___fttol+0)+0,f
  5268  02BD                     u1860:
  5269  02BD  3EFF               	addlw	-1
  5270  02BE  1D03               	skipz
  5271  02BF  2AB9               	goto	u1865
  5272  02C0  0820               	movf	0+(??___fttol+0)+0,w
  5273  02C1  00A3               	movwf	(??___fttol+3)+0
  5274  02C2  0823               	movf	(??___fttol+3)+0,w
  5275  02C3  00A4               	movwf	(___fttol@sign1)
  5276                           opt subtitle "HI-TECH Software Omniscient Code Generator (Lite mode) build 49521"
  5277                           
  5278  02C4                     l1869:	
  5279  02C4  17F9               	bsf	(___fttol@f1)+(15/8),(15)&7
  5280                           opt subtitle "HI-TECH Software Omniscient Code Generator (Lite mode) build 49521"
  5281                           
  5282  02C5                     l1871:	
  5283  02C5  30FF               	movlw	0FFh
  5284  02C6  05F8               	andwf	(___fttol@f1),f
  5285  02C7  30FF               	movlw	0FFh
  5286  02C8  05F9               	andwf	(___fttol@f1+1),f
  5287  02C9  3000               	movlw	0
  5288  02CA  05FA               	andwf	(___fttol@f1+2),f
  5289                           opt subtitle "HI-TECH Software Omniscient Code Generator (Lite mode) build 49521"
  5290                           
  5291  02CB                     l1873:	
  5292  02CB  0878               	movf	(___fttol@f1),w
  5293  02CC  00A5               	movwf	(___fttol@lval)
  5294  02CD  0879               	movf	(___fttol@f1+1),w
  5295  02CE  00A6               	movwf	((___fttol@lval))+1
  5296  02CF  087A               	movf	(___fttol@f1+2),w
  5297  02D0  00A7               	movwf	((___fttol@lval))+2
  5298  02D1  01A8               	clrf	((___fttol@lval))+3
  5299                           opt subtitle "HI-TECH Software Omniscient Code Generator (Lite mode) build 49521"
  5300                           
  5301  02D2                     l1875:	
  5302  02D2  308E               	movlw	low(08Eh)
  5303  02D3  02A9               	subwf	(___fttol@exp1),f
  5304                           opt subtitle "HI-TECH Software Omniscient Code Generator (Lite mode) build 49521"
  5305                           
  5306  02D4                     l1877:	
  5307  02D4  1FA9               	btfss	(___fttol@exp1),7
  5308  02D5  2AD7               	goto	u1871
  5309  02D6  2AD8               	goto	u1870
  5310  02D7                     u1871:
  5311  02D7  2AFD               	goto	l1887
  5312  02D8                     u1870:
  5313                           opt subtitle "HI-TECH Software Omniscient Code Generator (Lite mode) build 49521"
  5314                           
  5315  02D8                     l1879:	
  5316  02D8  0829               	movf	(___fttol@exp1),w
  5317  02D9  3A80               	xorlw	80h
  5318  02DA  3E8F               	addlw	-((-15)^80h)
  5319  02DB  1803               	skipnc
  5320  02DC  2ADE               	goto	u1881
  5321  02DD  2ADF               	goto	u1880
  5322  02DE                     u1881:
  5323  02DE  2AEA               	goto	l1885
  5324  02DF                     u1880:
  5325                           opt subtitle "HI-TECH Software Omniscient Code Generator (Lite mode) build 49521"
  5326                           
  5327  02DF                     l1881:	
  5328  02DF  3000               	movlw	0
  5329  02E0  00FB               	movwf	(?___fttol+3)
  5330  02E1  3000               	movlw	0
  5331  02E2  00FA               	movwf	(?___fttol+2)
  5332  02E3  3000               	movlw	0
  5333  02E4  00F9               	movwf	(?___fttol+1)
  5334  02E5  3000               	movlw	0
  5335  02E6  00F8               	movwf	(?___fttol)
  5336                           opt subtitle "HI-TECH Software Omniscient Code Generator (Lite mode) build 49521"
  5337  02E7  2B3A               	goto	l385
  5338                           opt subtitle "HI-TECH Software Omniscient Code Generator (Lite mode) build 49521"
  5339  02E8                     l1883:	
  5340  02E8  2B3A               	goto	l385
  5341                           opt subtitle "HI-TECH Software Omniscient Code Generator (Lite mode) build 49521"
  5342  02E9                     l387:	
  5343  02E9  2AEA               	goto	l1885
  5344                           opt subtitle "HI-TECH Software Omniscient Code Generator (Lite mode) build 49521"
  5345                           
  5346  02EA                     l388:	
  5347                           opt subtitle "HI-TECH Software Omniscient Code Generator (Lite mode) build 49521"
  5348                           
  5349  02EA                     l1885:	
  5350  02EA  3001               	movlw	01h
  5351  02EB                     u1895:
  5352  02EB  1003               	clrc
  5353  02EC  0CA8               	rrf	(___fttol@lval+3),f
  5354  02ED  0CA7               	rrf	(___fttol@lval+2),f
  5355  02EE  0CA6               	rrf	(___fttol@lval+1),f
  5356  02EF  0CA5               	rrf	(___fttol@lval),f
  5357  02F0  3EFF               	addlw	-1
  5358  02F1  1D03               	skipz
  5359  02F2  2AEB               	goto	u1895
  5360                           opt subtitle "HI-TECH Software Omniscient Code Generator (Lite mode) build 49521"
  5361                           
  5362  02F3  3001               	movlw	(01h)
  5363  02F4  00A0               	movwf	(??___fttol+0)+0
  5364  02F5  0820               	movf	(??___fttol+0)+0,w
  5365  02F6  07A9               	addwf	(___fttol@exp1),f
  5366  02F7  1D03               	btfss	status,2
  5367  02F8  2AFA               	goto	u1901
  5368  02F9  2AFB               	goto	u1900
  5369  02FA                     u1901:
  5370  02FA  2AEA               	goto	l1885
  5371  02FB                     u1900:
  5372  02FB  2B21               	goto	l1897
  5373                           opt subtitle "HI-TECH Software Omniscient Code Generator (Lite mode) build 49521"
  5374  02FC                     l389:	
  5375                           opt subtitle "HI-TECH Software Omniscient Code Generator (Lite mode) build 49521"
  5376  02FC  2B21               	goto	l1897
  5377                           opt subtitle "HI-TECH Software Omniscient Code Generator (Lite mode) build 49521"
  5378  02FD                     l386:	
  5379                           opt subtitle "HI-TECH Software Omniscient Code Generator (Lite mode) build 49521"
  5380                           
  5381  02FD                     l1887:	
  5382  02FD  3018               	movlw	(018h)
  5383  02FE  0229               	subwf	(___fttol@exp1),w
  5384  02FF  1C03               	skipc
  5385  0300  2B02               	goto	u1911
  5386  0301  2B03               	goto	u1910
  5387  0302                     u1911:
  5388  0302  2B1A               	goto	l1895
  5389  0303                     u1910:
  5390                           opt subtitle "HI-TECH Software Omniscient Code Generator (Lite mode) build 49521"
  5391                           
  5392  0303                     l1889:	
  5393  0303  3000               	movlw	0
  5394  0304  00FB               	movwf	(?___fttol+3)
  5395  0305  3000               	movlw	0
  5396  0306  00FA               	movwf	(?___fttol+2)
  5397  0307  3000               	movlw	0
  5398  0308  00F9               	movwf	(?___fttol+1)
  5399  0309  3000               	movlw	0
  5400  030A  00F8               	movwf	(?___fttol)
  5401                           opt subtitle "HI-TECH Software Omniscient Code Generator (Lite mode) build 49521"
  5402  030B  2B3A               	goto	l385
  5403                           opt subtitle "HI-TECH Software Omniscient Code Generator (Lite mode) build 49521"
  5404  030C                     l1891:	
  5405  030C  2B3A               	goto	l385
  5406                           opt subtitle "HI-TECH Software Omniscient Code Generator (Lite mode) build 49521"
  5407  030D                     l391:	
  5408                           opt subtitle "HI-TECH Software Omniscient Code Generator (Lite mode) build 49521"
  5409  030D  2B1A               	goto	l1895
  5410                           opt subtitle "HI-TECH Software Omniscient Code Generator (Lite mode) build 49521"
  5411  030E                     l393:	
  5412                           opt subtitle "HI-TECH Software Omniscient Code Generator (Lite mode) build 49521"
  5413                           
  5414  030E                     l1893:	
  5415  030E  3001               	movlw	01h
  5416  030F  00A0               	movwf	(??___fttol+0)+0
  5417  0310                     u1925:
  5418  0310  1003               	clrc
  5419  0311  0DA5               	rlf	(___fttol@lval),f
  5420  0312  0DA6               	rlf	(___fttol@lval+1),f
  5421  0313  0DA7               	rlf	(___fttol@lval+2),f
  5422  0314  0DA8               	rlf	(___fttol@lval+3),f
  5423  0315  0BA0               	decfsz	(??___fttol+0)+0
  5424  0316  2B10               	goto	u1925
  5425                           opt subtitle "HI-TECH Software Omniscient Code Generator (Lite mode) build 49521"
  5426  0317  3001               	movlw	low(01h)
  5427  0318  02A9               	subwf	(___fttol@exp1),f
  5428  0319  2B1A               	goto	l1895
  5429                           opt subtitle "HI-TECH Software Omniscient Code Generator (Lite mode) build 49521"
  5430                           
  5431  031A                     l392:	
  5432                           opt subtitle "HI-TECH Software Omniscient Code Generator (Lite mode) build 49521"
  5433                           
  5434  031A                     l1895:	
  5435  031A  08A9               	movf	(___fttol@exp1),f
  5436  031B  1D03               	skipz
  5437  031C  2B1E               	goto	u1931
  5438  031D  2B1F               	goto	u1930
  5439  031E                     u1931:
  5440  031E  2B0E               	goto	l1893
  5441  031F                     u1930:
  5442  031F  2B21               	goto	l1897
  5443                           opt subtitle "HI-TECH Software Omniscient Code Generator (Lite mode) build 49521"
  5444  0320                     l394:	
  5445  0320  2B21               	goto	l1897
  5446                           opt subtitle "HI-TECH Software Omniscient Code Generator (Lite mode) build 49521"
  5447                           
  5448  0321                     l390:	
  5449                           opt subtitle "HI-TECH Software Omniscient Code Generator (Lite mode) build 49521"
  5450                           
  5451  0321                     l1897:	
  5452  0321  0824               	movf	(___fttol@sign1),w
  5453  0322  1D03               	skipz
  5454  0323  2B25               	goto	u1940
  5455  0324  2B31               	goto	l1901
  5456  0325                     u1940:
  5457                           opt subtitle "HI-TECH Software Omniscient Code Generator (Lite mode) build 49521"
  5458                           
  5459  0325                     l1899:	
  5460  0325  09A5               	comf	(___fttol@lval),f
  5461  0326  09A6               	comf	(___fttol@lval+1),f
  5462  0327  09A7               	comf	(___fttol@lval+2),f
  5463  0328  09A8               	comf	(___fttol@lval+3),f
  5464  0329  0AA5               	incf	(___fttol@lval),f
  5465  032A  1903               	skipnz
  5466  032B  0AA6               	incf	(___fttol@lval+1),f
  5467  032C  1903               	skipnz
  5468  032D  0AA7               	incf	(___fttol@lval+2),f
  5469  032E  1903               	skipnz
  5470  032F  0AA8               	incf	(___fttol@lval+3),f
  5471  0330  2B31               	goto	l1901
  5472                           opt subtitle "HI-TECH Software Omniscient Code Generator (Lite mode) build 49521"
  5473  0331                     l395:	
  5474                           opt subtitle "HI-TECH Software Omniscient Code Generator (Lite mode) build 49521"
  5475                           
  5476  0331                     l1901:	
  5477  0331  0828               	movf	(___fttol@lval+3),w
  5478  0332  00FB               	movwf	(?___fttol+3)
  5479  0333  0827               	movf	(___fttol@lval+2),w
  5480  0334  00FA               	movwf	(?___fttol+2)
  5481  0335  0826               	movf	(___fttol@lval+1),w
  5482  0336  00F9               	movwf	(?___fttol+1)
  5483  0337  0825               	movf	(___fttol@lval),w
  5484  0338  00F8               	movwf	(?___fttol)
  5485                           opt subtitle "HI-TECH Software Omniscient Code Generator (Lite mode) build 49521"
  5486  0339  2B3A               	goto	l385
  5487                           opt subtitle "HI-TECH Software Omniscient Code Generator (Lite mode) build 49521"
  5488  033A                     l1903:	
  5489                           opt subtitle "HI-TECH Software Omniscient Code Generator (Lite mode) build 49521"
  5490                           
  5491  033A                     l385:	
  5492  033A  0008               	return
  5493                           opt subtitle "HI-TECH Software Omniscient Code Generator (Lite mode) build 49521"
  5494                           
  5495  033B                     	__end_of___fttol:
  5496                           opt subtitle "HI-TECH Software Omniscient Code Generator (Lite mode) build 49521"
  5497                           
  5498                           opt pagewidth 120
  5499                           
  5500                           	opt lm
  5501                           
  5502                           	processor	16F887
  5503                           clrc	macro
  5504                           	bcf	3,0
  5505                           	endm
  5506                           clrz	macro
  5507                           	bcf	3,2
  5508                           	endm
  5509                           setc	macro
  5510                           	bsf	3,0
  5511                           	endm
  5512                           setz	macro
  5513                           	bsf	3,2
  5514                           	endm
  5515                           skipc	macro
  5516                           	btfss	3,0
  5517                           	endm
  5518                           skipz	macro
  5519                           	btfss	3,2
  5520                           	endm
  5521                           skipnc	macro
  5522                           	btfsc	3,0
  5523                           	endm
  5524                           skipnz	macro
  5525                           	btfsc	3,2
  5526                           	endm
  5527                           indf	equ	0
  5528                           indf0	equ	0
  5529                           pc	equ	2
  5530                           pcl	equ	2
  5531                           status	equ	3
  5532                           fsr	equ	4
  5533  0F11                     __ptext462:	;psect for function ___awdiv
  5534                           opt subtitle "HI-TECH Software Omniscient Code Generator (Lite mode) build 49521"
  5535                           
  5536                           opt pagewidth 120
  5537                           
  5538  0074                     	__size_of___awdiv	equ	__end_of___awdiv-___awdiv
  5539                           opt subtitle "HI-TECH Software Omniscient Code Generator (Lite mode) build 49521"
  5540  0F11                     ___awdiv:	
  5541                           opt subtitle "HI-TECH Software Omniscient Code Generator (Lite mode) build 49521"
  5542                           
  5543                           opt pagewidth 120
  5544                           
  5545  0F11                     l1905:	
  5546  0F11  1283               	bcf	status, 5	;RP0=0, select bank0
  5547  0F12  1303               	bcf	status, 6	;RP1=0, select bank0
  5548  0F13  01A1               	clrf	(___awdiv@sign)
  5549                           opt subtitle "HI-TECH Software Omniscient Code Generator (Lite mode) build 49521"
  5550  0F14  1FF7               	btfss	(___awdiv@divisor+1),7
  5551  0F15  2F17               	goto	u1951
  5552  0F16  2F18               	goto	u1950
  5553  0F17                     u1951:
  5554  0F17  2F20               	goto	l1911
  5555  0F18                     u1950:
  5556                           opt subtitle "HI-TECH Software Omniscient Code Generator (Lite mode) build 49521"
  5557                           
  5558  0F18                     l1907:	
  5559  0F18  09F6               	comf	(___awdiv@divisor),f
  5560  0F19  09F7               	comf	(___awdiv@divisor+1),f
  5561  0F1A  0AF6               	incf	(___awdiv@divisor),f
  5562  0F1B  1903               	skipnz
  5563  0F1C  0AF7               	incf	(___awdiv@divisor+1),f
  5564                           opt subtitle "HI-TECH Software Omniscient Code Generator (Lite mode) build 49521"
  5565                           
  5566  0F1D                     l1909:	
  5567  0F1D  01A1               	clrf	(___awdiv@sign)
  5568  0F1E  0AA1               	incf	(___awdiv@sign),f
  5569  0F1F  2F20               	goto	l1911
  5570                           opt subtitle "HI-TECH Software Omniscient Code Generator (Lite mode) build 49521"
  5571                           
  5572  0F20                     l415:	
  5573                           opt subtitle "HI-TECH Software Omniscient Code Generator (Lite mode) build 49521"
  5574                           
  5575  0F20                     l1911:	
  5576  0F20  1FF9               	btfss	(___awdiv@dividend+1),7
  5577  0F21  2F23               	goto	u1961
  5578  0F22  2F24               	goto	u1960
  5579  0F23                     u1961:
  5580  0F23  2F2E               	goto	l1917
  5581  0F24                     u1960:
  5582                           opt subtitle "HI-TECH Software Omniscient Code Generator (Lite mode) build 49521"
  5583                           
  5584  0F24                     l1913:	
  5585  0F24  09F8               	comf	(___awdiv@dividend),f
  5586  0F25  09F9               	comf	(___awdiv@dividend+1),f
  5587  0F26  0AF8               	incf	(___awdiv@dividend),f
  5588  0F27  1903               	skipnz
  5589  0F28  0AF9               	incf	(___awdiv@dividend+1),f
  5590                           opt subtitle "HI-TECH Software Omniscient Code Generator (Lite mode) build 49521"
  5591                           
  5592  0F29                     l1915:	
  5593  0F29  3001               	movlw	(01h)
  5594  0F2A  00FA               	movwf	(??___awdiv+0)+0
  5595  0F2B  087A               	movf	(??___awdiv+0)+0,w
  5596  0F2C  06A1               	xorwf	(___awdiv@sign),f
  5597  0F2D  2F2E               	goto	l1917
  5598                           opt subtitle "HI-TECH Software Omniscient Code Generator (Lite mode) build 49521"
  5599                           
  5600  0F2E                     l416:	
  5601                           opt subtitle "HI-TECH Software Omniscient Code Generator (Lite mode) build 49521"
  5602                           
  5603  0F2E                     l1917:	
  5604  0F2E  01A2               	clrf	(___awdiv@quotient)
  5605  0F2F  01A3               	clrf	(___awdiv@quotient+1)
  5606                           opt subtitle "HI-TECH Software Omniscient Code Generator (Lite mode) build 49521"
  5607                           
  5608  0F30                     l1919:	
  5609  0F30  0877               	movf	(___awdiv@divisor+1),w
  5610  0F31  0476               	iorwf	(___awdiv@divisor),w
  5611  0F32  1903               	skipnz
  5612  0F33  2F35               	goto	u1971
  5613  0F34  2F36               	goto	u1970
  5614  0F35                     u1971:
  5615  0F35  2F73               	goto	l1939
  5616  0F36                     u1970:
  5617                           opt subtitle "HI-TECH Software Omniscient Code Generator (Lite mode) build 49521"
  5618                           
  5619  0F36                     l1921:	
  5620  0F36  01A0               	clrf	(___awdiv@counter)
  5621  0F37  0AA0               	incf	(___awdiv@counter),f
  5622                           opt subtitle "HI-TECH Software Omniscient Code Generator (Lite mode) build 49521"
  5623  0F38  2F45               	goto	l1927
  5624                           opt subtitle "HI-TECH Software Omniscient Code Generator (Lite mode) build 49521"
  5625  0F39                     l419:	
  5626                           opt subtitle "HI-TECH Software Omniscient Code Generator (Lite mode) build 49521"
  5627                           
  5628  0F39                     l1923:	
  5629  0F39  3001               	movlw	01h
  5630                           opt subtitle "HI-TECH Software Omniscient Code Generator (Lite mode) build 49521"
  5631  0F3A                     u1985:
  5632  0F3A  1003               	clrc
  5633  0F3B  0DF6               	rlf	(___awdiv@divisor),f
  5634  0F3C  0DF7               	rlf	(___awdiv@divisor+1),f
  5635  0F3D  3EFF               	addlw	-1
  5636  0F3E  1D03               	skipz
  5637  0F3F  2F3A               	goto	u1985
  5638                           opt subtitle "HI-TECH Software Omniscient Code Generator (Lite mode) build 49521"
  5639                           
  5640  0F40                     l1925:	
  5641  0F40  3001               	movlw	(01h)
  5642  0F41  00FA               	movwf	(??___awdiv+0)+0
  5643  0F42  087A               	movf	(??___awdiv+0)+0,w
  5644  0F43  07A0               	addwf	(___awdiv@counter),f
  5645  0F44  2F45               	goto	l1927
  5646                           opt subtitle "HI-TECH Software Omniscient Code Generator (Lite mode) build 49521"
  5647                           
  5648  0F45                     l418:	
  5649                           opt subtitle "HI-TECH Software Omniscient Code Generator (Lite mode) build 49521"
  5650                           
  5651  0F45                     l1927:	
  5652  0F45  1FF7               	btfss	(___awdiv@divisor+1),(15)&7
  5653  0F46  2F48               	goto	u1991
  5654  0F47  2F49               	goto	u1990
  5655  0F48                     u1991:
  5656  0F48  2F39               	goto	l1923
  5657  0F49                     u1990:
  5658  0F49  2F4B               	goto	l1929
  5659                           opt subtitle "HI-TECH Software Omniscient Code Generator (Lite mode) build 49521"
  5660  0F4A                     l420:	
  5661  0F4A  2F4B               	goto	l1929
  5662                           opt subtitle "HI-TECH Software Omniscient Code Generator (Lite mode) build 49521"
  5663                           
  5664  0F4B                     l421:	
  5665                           opt subtitle "HI-TECH Software Omniscient Code Generator (Lite mode) build 49521"
  5666                           
  5667  0F4B                     l1929:	
  5668  0F4B  3001               	movlw	01h
  5669                           opt subtitle "HI-TECH Software Omniscient Code Generator (Lite mode) build 49521"
  5670  0F4C                     u2005:
  5671  0F4C  1003               	clrc
  5672  0F4D  0DA2               	rlf	(___awdiv@quotient),f
  5673  0F4E  0DA3               	rlf	(___awdiv@quotient+1),f
  5674  0F4F  3EFF               	addlw	-1
  5675  0F50  1D03               	skipz
  5676  0F51  2F4C               	goto	u2005
  5677                           opt subtitle "HI-TECH Software Omniscient Code Generator (Lite mode) build 49521"
  5678  0F52  0877               	movf	(___awdiv@divisor+1),w
  5679  0F53  0279               	subwf	(___awdiv@dividend+1),w
  5680  0F54  1D03               	skipz
  5681  0F55  2F58               	goto	u2015
  5682  0F56  0876               	movf	(___awdiv@divisor),w
  5683  0F57  0278               	subwf	(___awdiv@dividend),w
  5684  0F58                     u2015:
  5685  0F58  1C03               	skipc
  5686  0F59  2F5B               	goto	u2011
  5687  0F5A  2F5C               	goto	u2010
  5688  0F5B                     u2011:
  5689  0F5B  2F64               	goto	l1935
  5690  0F5C                     u2010:
  5691                           opt subtitle "HI-TECH Software Omniscient Code Generator (Lite mode) build 49521"
  5692                           
  5693  0F5C                     l1931:	
  5694  0F5C  0876               	movf	(___awdiv@divisor),w
  5695  0F5D  02F8               	subwf	(___awdiv@dividend),f
  5696  0F5E  0877               	movf	(___awdiv@divisor+1),w
  5697  0F5F  1C03               	skipc
  5698  0F60  03F9               	decf	(___awdiv@dividend+1),f
  5699  0F61  02F9               	subwf	(___awdiv@dividend+1),f
  5700                           opt subtitle "HI-TECH Software Omniscient Code Generator (Lite mode) build 49521"
  5701                           
  5702  0F62                     l1933:	
  5703  0F62  1422               	bsf	(___awdiv@quotient)+(0/8),(0)&7
  5704  0F63  2F64               	goto	l1935
  5705                           opt subtitle "HI-TECH Software Omniscient Code Generator (Lite mode) build 49521"
  5706                           
  5707  0F64                     l422:	
  5708                           opt subtitle "HI-TECH Software Omniscient Code Generator (Lite mode) build 49521"
  5709                           
  5710  0F64                     l1935:	
  5711  0F64  3001               	movlw	01h
  5712                           opt subtitle "HI-TECH Software Omniscient Code Generator (Lite mode) build 49521"
  5713  0F65                     u2025:
  5714  0F65  1003               	clrc
  5715  0F66  0CF7               	rrf	(___awdiv@divisor+1),f
  5716  0F67  0CF6               	rrf	(___awdiv@divisor),f
  5717  0F68  3EFF               	addlw	-1
  5718  0F69  1D03               	skipz
  5719  0F6A  2F65               	goto	u2025
  5720                           opt subtitle "HI-TECH Software Omniscient Code Generator (Lite mode) build 49521"
  5721                           
  5722  0F6B                     l1937:	
  5723  0F6B  3001               	movlw	low(01h)
  5724  0F6C  02A0               	subwf	(___awdiv@counter),f
  5725  0F6D  1D03               	btfss	status,2
  5726  0F6E  2F70               	goto	u2031
  5727  0F6F  2F71               	goto	u2030
  5728  0F70                     u2031:
  5729  0F70  2F4B               	goto	l1929
  5730  0F71                     u2030:
  5731  0F71  2F73               	goto	l1939
  5732                           opt subtitle "HI-TECH Software Omniscient Code Generator (Lite mode) build 49521"
  5733  0F72                     l423:	
  5734  0F72  2F73               	goto	l1939
  5735                           opt subtitle "HI-TECH Software Omniscient Code Generator (Lite mode) build 49521"
  5736                           
  5737  0F73                     l417:	
  5738                           opt subtitle "HI-TECH Software Omniscient Code Generator (Lite mode) build 49521"
  5739                           
  5740  0F73                     l1939:	
  5741  0F73  0821               	movf	(___awdiv@sign),w
  5742  0F74  1D03               	skipz
  5743  0F75  2F77               	goto	u2040
  5744  0F76  2F7D               	goto	l1943
  5745  0F77                     u2040:
  5746                           opt subtitle "HI-TECH Software Omniscient Code Generator (Lite mode) build 49521"
  5747                           
  5748  0F77                     l1941:	
  5749  0F77  09A2               	comf	(___awdiv@quotient),f
  5750  0F78  09A3               	comf	(___awdiv@quotient+1),f
  5751  0F79  0AA2               	incf	(___awdiv@quotient),f
  5752  0F7A  1903               	skipnz
  5753  0F7B  0AA3               	incf	(___awdiv@quotient+1),f
  5754  0F7C  2F7D               	goto	l1943
  5755                           opt subtitle "HI-TECH Software Omniscient Code Generator (Lite mode) build 49521"
  5756  0F7D                     l424:	
  5757                           opt subtitle "HI-TECH Software Omniscient Code Generator (Lite mode) build 49521"
  5758                           
  5759  0F7D                     l1943:	
  5760  0F7D  0823               	movf	(___awdiv@quotient+1),w
  5761  0F7E  01F7               	clrf	(?___awdiv+1)
  5762  0F7F  07F7               	addwf	(?___awdiv+1)
  5763  0F80  0822               	movf	(___awdiv@quotient),w
  5764  0F81  01F6               	clrf	(?___awdiv)
  5765  0F82  07F6               	addwf	(?___awdiv)
  5766                           opt subtitle "HI-TECH Software Omniscient Code Generator (Lite mode) build 49521"
  5767  0F83  2F84               	goto	l425
  5768                           opt subtitle "HI-TECH Software Omniscient Code Generator (Lite mode) build 49521"
  5769  0F84                     l1945:	
  5770                           opt subtitle "HI-TECH Software Omniscient Code Generator (Lite mode) build 49521"
  5771                           
  5772  0F84                     l425:	
  5773  0F84  0008               	return
  5774                           opt subtitle "HI-TECH Software Omniscient Code Generator (Lite mode) build 49521"
  5775                           
  5776  0F85                     	__end_of___awdiv:
  5777                           opt subtitle "HI-TECH Software Omniscient Code Generator (Lite mode) build 49521"
  5778                           
  5779                           opt pagewidth 120
  5780                           
  5781                           	opt lm
  5782                           
  5783                           	processor	16F887
  5784                           clrc	macro
  5785                           	bcf	3,0
  5786                           	endm
  5787                           clrz	macro
  5788                           	bcf	3,2
  5789                           	endm
  5790                           setc	macro
  5791                           	bsf	3,0
  5792                           	endm
  5793                           setz	macro
  5794                           	bsf	3,2
  5795                           	endm
  5796                           skipc	macro
  5797                           	btfss	3,0
  5798                           	endm
  5799                           skipz	macro
  5800                           	btfss	3,2
  5801                           	endm
  5802                           skipnc	macro
  5803                           	btfsc	3,0
  5804                           	endm
  5805                           skipnz	macro
  5806                           	btfsc	3,2
  5807                           	endm
  5808                           indf	equ	0
  5809                           indf0	equ	0
  5810                           pc	equ	2
  5811                           pcl	equ	2
  5812                           status	equ	3
  5813                           fsr	equ	4
  5814  01F0                     __ptext463:	;psect for function ___aldiv
  5815                           opt subtitle "HI-TECH Software Omniscient Code Generator (Lite mode) build 49521"
  5816                           
  5817                           opt pagewidth 120
  5818                           
  5819  00A5                     	__size_of___aldiv	equ	__end_of___aldiv-___aldiv
  5820                           opt subtitle "HI-TECH Software Omniscient Code Generator (Lite mode) build 49521"
  5821  01F0                     ___aldiv:	
  5822                           opt subtitle "HI-TECH Software Omniscient Code Generator (Lite mode) build 49521"
  5823                           
  5824                           opt pagewidth 120
  5825                           
  5826  01F0                     l1763:	
  5827  01F0  1283               	bcf	status, 5	;RP0=0, select bank0
  5828  01F1  1303               	bcf	status, 6	;RP1=0, select bank0
  5829  01F2  01A1               	clrf	(___aldiv@sign)
  5830                           opt subtitle "HI-TECH Software Omniscient Code Generator (Lite mode) build 49521"
  5831  01F3  1FF3               	btfss	(___aldiv@divisor+3),7
  5832  01F4  29F6               	goto	u1641
  5833  01F5  29F7               	goto	u1640
  5834  01F6                     u1641:
  5835  01F6  2A04               	goto	l470
  5836  01F7                     u1640:
  5837                           opt subtitle "HI-TECH Software Omniscient Code Generator (Lite mode) build 49521"
  5838                           
  5839  01F7                     l1765:	
  5840  01F7  09F0               	comf	(___aldiv@divisor),f
  5841  01F8  09F1               	comf	(___aldiv@divisor+1),f
  5842  01F9  09F2               	comf	(___aldiv@divisor+2),f
  5843  01FA  09F3               	comf	(___aldiv@divisor+3),f
  5844  01FB  0AF0               	incf	(___aldiv@divisor),f
  5845  01FC  1903               	skipnz
  5846  01FD  0AF1               	incf	(___aldiv@divisor+1),f
  5847  01FE  1903               	skipnz
  5848  01FF  0AF2               	incf	(___aldiv@divisor+2),f
  5849  0200  1903               	skipnz
  5850  0201  0AF3               	incf	(___aldiv@divisor+3),f
  5851                           opt subtitle "HI-TECH Software Omniscient Code Generator (Lite mode) build 49521"
  5852  0202  01A1               	clrf	(___aldiv@sign)
  5853  0203  0AA1               	incf	(___aldiv@sign),f
  5854                           opt subtitle "HI-TECH Software Omniscient Code Generator (Lite mode) build 49521"
  5855                           
  5856  0204                     l470:	
  5857                           opt subtitle "HI-TECH Software Omniscient Code Generator (Lite mode) build 49521"
  5858  0204  1FF7               	btfss	(___aldiv@dividend+3),7
  5859  0205  2A07               	goto	u1651
  5860  0206  2A08               	goto	u1650
  5861  0207                     u1651:
  5862  0207  2A18               	goto	l1771
  5863  0208                     u1650:
  5864                           opt subtitle "HI-TECH Software Omniscient Code Generator (Lite mode) build 49521"
  5865                           
  5866  0208                     l1767:	
  5867  0208  09F4               	comf	(___aldiv@dividend),f
  5868  0209  09F5               	comf	(___aldiv@dividend+1),f
  5869  020A  09F6               	comf	(___aldiv@dividend+2),f
  5870  020B  09F7               	comf	(___aldiv@dividend+3),f
  5871  020C  0AF4               	incf	(___aldiv@dividend),f
  5872  020D  1903               	skipnz
  5873  020E  0AF5               	incf	(___aldiv@dividend+1),f
  5874  020F  1903               	skipnz
  5875  0210  0AF6               	incf	(___aldiv@dividend+2),f
  5876  0211  1903               	skipnz
  5877  0212  0AF7               	incf	(___aldiv@dividend+3),f
  5878                           opt subtitle "HI-TECH Software Omniscient Code Generator (Lite mode) build 49521"
  5879                           
  5880  0213                     l1769:	
  5881  0213  3001               	movlw	(01h)
  5882  0214  00F8               	movwf	(??___aldiv+0)+0
  5883  0215  0878               	movf	(??___aldiv+0)+0,w
  5884  0216  06A1               	xorwf	(___aldiv@sign),f
  5885  0217  2A18               	goto	l1771
  5886                           opt subtitle "HI-TECH Software Omniscient Code Generator (Lite mode) build 49521"
  5887                           
  5888  0218                     l471:	
  5889                           opt subtitle "HI-TECH Software Omniscient Code Generator (Lite mode) build 49521"
  5890                           
  5891  0218                     l1771:	
  5892  0218  3000               	movlw	0
  5893  0219  00A5               	movwf	(___aldiv@quotient+3)
  5894  021A  3000               	movlw	0
  5895  021B  00A4               	movwf	(___aldiv@quotient+2)
  5896  021C  3000               	movlw	0
  5897  021D  00A3               	movwf	(___aldiv@quotient+1)
  5898  021E  3000               	movlw	0
  5899  021F  00A2               	movwf	(___aldiv@quotient)
  5900                           opt subtitle "HI-TECH Software Omniscient Code Generator (Lite mode) build 49521"
  5901                           
  5902                           opt pagewidth 120
  5903  0220                     l1773:	
  5904  0220  0873               	movf	(___aldiv@divisor+3),w
  5905  0221  0472               	iorwf	(___aldiv@divisor+2),w
  5906  0222  0471               	iorwf	(___aldiv@divisor+1),w
  5907  0223  0470               	iorwf	(___aldiv@divisor),w
  5908  0224  1903               	skipnz
  5909  0225  2A27               	goto	u1661
  5910  0226  2A28               	goto	u1660
  5911  0227                     u1661:
  5912  0227  2A7B               	goto	l1793
  5913  0228                     u1660:
  5914                           opt subtitle "HI-TECH Software Omniscient Code Generator (Lite mode) build 49521"
  5915                           
  5916  0228                     l1775:	
  5917  0228  01A0               	clrf	(___aldiv@counter)
  5918  0229  0AA0               	incf	(___aldiv@counter),f
  5919                           opt subtitle "HI-TECH Software Omniscient Code Generator (Lite mode) build 49521"
  5920  022A  2A39               	goto	l1779
  5921                           opt subtitle "HI-TECH Software Omniscient Code Generator (Lite mode) build 49521"
  5922  022B                     l474:	
  5923                           opt subtitle "HI-TECH Software Omniscient Code Generator (Lite mode) build 49521"
  5924                           
  5925  022B                     l1777:	
  5926  022B  3001               	movlw	01h
  5927  022C  00F8               	movwf	(??___aldiv+0)+0
  5928  022D                     u1675:
  5929  022D  1003               	clrc
  5930  022E  0DF0               	rlf	(___aldiv@divisor),f
  5931  022F  0DF1               	rlf	(___aldiv@divisor+1),f
  5932  0230  0DF2               	rlf	(___aldiv@divisor+2),f
  5933  0231  0DF3               	rlf	(___aldiv@divisor+3),f
  5934  0232  0BF8               	decfsz	(??___aldiv+0)+0
  5935  0233  2A2D               	goto	u1675
  5936                           opt subtitle "HI-TECH Software Omniscient Code Generator (Lite mode) build 49521"
  5937  0234  3001               	movlw	(01h)
  5938  0235  00F8               	movwf	(??___aldiv+0)+0
  5939  0236  0878               	movf	(??___aldiv+0)+0,w
  5940  0237  07A0               	addwf	(___aldiv@counter),f
  5941  0238  2A39               	goto	l1779
  5942                           opt subtitle "HI-TECH Software Omniscient Code Generator (Lite mode) build 49521"
  5943                           
  5944  0239                     l473:	
  5945                           opt subtitle "HI-TECH Software Omniscient Code Generator (Lite mode) build 49521"
  5946                           
  5947  0239                     l1779:	
  5948  0239  1FF3               	btfss	(___aldiv@divisor+3),(31)&7
  5949  023A  2A3C               	goto	u1681
  5950  023B  2A3D               	goto	u1680
  5951  023C                     u1681:
  5952  023C  2A2B               	goto	l1777
  5953  023D                     u1680:
  5954  023D  2A3F               	goto	l1781
  5955                           opt subtitle "HI-TECH Software Omniscient Code Generator (Lite mode) build 49521"
  5956  023E                     l475:	
  5957  023E  2A3F               	goto	l1781
  5958                           opt subtitle "HI-TECH Software Omniscient Code Generator (Lite mode) build 49521"
  5959                           
  5960  023F                     l476:	
  5961                           opt subtitle "HI-TECH Software Omniscient Code Generator (Lite mode) build 49521"
  5962                           
  5963  023F                     l1781:	
  5964  023F  3001               	movlw	01h
  5965  0240  00F8               	movwf	(??___aldiv+0)+0
  5966  0241                     u1695:
  5967  0241  1003               	clrc
  5968  0242  0DA2               	rlf	(___aldiv@quotient),f
  5969  0243  0DA3               	rlf	(___aldiv@quotient+1),f
  5970  0244  0DA4               	rlf	(___aldiv@quotient+2),f
  5971  0245  0DA5               	rlf	(___aldiv@quotient+3),f
  5972  0246  0BF8               	decfsz	(??___aldiv+0)+0
  5973  0247  2A41               	goto	u1695
  5974                           opt subtitle "HI-TECH Software Omniscient Code Generator (Lite mode) build 49521"
  5975                           
  5976  0248                     l1783:	
  5977  0248  0873               	movf	(___aldiv@divisor+3),w
  5978  0249  0277               	subwf	(___aldiv@dividend+3),w
  5979  024A  1D03               	skipz
  5980  024B  2A56               	goto	u1705
  5981  024C  0872               	movf	(___aldiv@divisor+2),w
  5982  024D  0276               	subwf	(___aldiv@dividend+2),w
  5983  024E  1D03               	skipz
  5984  024F  2A56               	goto	u1705
  5985  0250  0871               	movf	(___aldiv@divisor+1),w
  5986  0251  0275               	subwf	(___aldiv@dividend+1),w
  5987  0252  1D03               	skipz
  5988  0253  2A56               	goto	u1705
  5989  0254  0870               	movf	(___aldiv@divisor),w
  5990  0255  0274               	subwf	(___aldiv@dividend),w
  5991  0256                     u1705:
  5992  0256  1C03               	skipc
  5993  0257  2A59               	goto	u1701
  5994  0258  2A5A               	goto	u1700
  5995  0259                     u1701:
  5996  0259  2A6A               	goto	l1789
  5997  025A                     u1700:
  5998                           opt subtitle "HI-TECH Software Omniscient Code Generator (Lite mode) build 49521"
  5999                           
  6000  025A                     l1785:	
  6001  025A  0870               	movf	(___aldiv@divisor),w
  6002  025B  02F4               	subwf	(___aldiv@dividend),f
  6003  025C  0871               	movf	(___aldiv@divisor+1),w
  6004  025D  1C03               	skipc
  6005  025E  0F71               	incfsz	(___aldiv@divisor+1),w
  6006  025F  02F5               	subwf	(___aldiv@dividend+1),f
  6007  0260  0872               	movf	(___aldiv@divisor+2),w
  6008  0261  1C03               	skipc
  6009  0262  0F72               	incfsz	(___aldiv@divisor+2),w
  6010  0263  02F6               	subwf	(___aldiv@dividend+2),f
  6011  0264  0873               	movf	(___aldiv@divisor+3),w
  6012  0265  1C03               	skipc
  6013  0266  0F73               	incfsz	(___aldiv@divisor+3),w
  6014  0267  02F7               	subwf	(___aldiv@dividend+3),f
  6015                           opt subtitle "HI-TECH Software Omniscient Code Generator (Lite mode) build 49521"
  6016                           
  6017  0268                     l1787:	
  6018  0268  1422               	bsf	(___aldiv@quotient)+(0/8),(0)&7
  6019  0269  2A6A               	goto	l1789
  6020                           opt subtitle "HI-TECH Software Omniscient Code Generator (Lite mode) build 49521"
  6021                           
  6022  026A                     l477:	
  6023                           opt subtitle "HI-TECH Software Omniscient Code Generator (Lite mode) build 49521"
  6024                           
  6025  026A                     l1789:	
  6026  026A  3001               	movlw	01h
  6027  026B                     u1715:
  6028  026B  1003               	clrc
  6029  026C  0CF3               	rrf	(___aldiv@divisor+3),f
  6030  026D  0CF2               	rrf	(___aldiv@divisor+2),f
  6031  026E  0CF1               	rrf	(___aldiv@divisor+1),f
  6032  026F  0CF0               	rrf	(___aldiv@divisor),f
  6033  0270  3EFF               	addlw	-1
  6034  0271  1D03               	skipz
  6035  0272  2A6B               	goto	u1715
  6036                           opt subtitle "HI-TECH Software Omniscient Code Generator (Lite mode) build 49521"
  6037                           
  6038                           opt pagewidth 120
  6039  0273                     l1791:	
  6040  0273  3001               	movlw	low(01h)
  6041  0274  02A0               	subwf	(___aldiv@counter),f
  6042  0275  1D03               	btfss	status,2
  6043  0276  2A78               	goto	u1721
  6044  0277  2A79               	goto	u1720
  6045  0278                     u1721:
  6046  0278  2A3F               	goto	l1781
  6047  0279                     u1720:
  6048  0279  2A7B               	goto	l1793
  6049                           opt subtitle "HI-TECH Software Omniscient Code Generator (Lite mode) build 49521"
  6050  027A                     l478:	
  6051  027A  2A7B               	goto	l1793
  6052                           opt subtitle "HI-TECH Software Omniscient Code Generator (Lite mode) build 49521"
  6053                           
  6054  027B                     l472:	
  6055                           opt subtitle "HI-TECH Software Omniscient Code Generator (Lite mode) build 49521"
  6056                           
  6057  027B                     l1793:	
  6058  027B  0821               	movf	(___aldiv@sign),w
  6059  027C  1D03               	skipz
  6060  027D  2A7F               	goto	u1730
  6061  027E  2A8B               	goto	l1797
  6062  027F                     u1730:
  6063                           opt subtitle "HI-TECH Software Omniscient Code Generator (Lite mode) build 49521"
  6064                           
  6065  027F                     l1795:	
  6066  027F  09A2               	comf	(___aldiv@quotient),f
  6067  0280  09A3               	comf	(___aldiv@quotient+1),f
  6068  0281  09A4               	comf	(___aldiv@quotient+2),f
  6069  0282  09A5               	comf	(___aldiv@quotient+3),f
  6070  0283  0AA2               	incf	(___aldiv@quotient),f
  6071  0284  1903               	skipnz
  6072  0285  0AA3               	incf	(___aldiv@quotient+1),f
  6073  0286  1903               	skipnz
  6074  0287  0AA4               	incf	(___aldiv@quotient+2),f
  6075  0288  1903               	skipnz
  6076  0289  0AA5               	incf	(___aldiv@quotient+3),f
  6077  028A  2A8B               	goto	l1797
  6078                           opt subtitle "HI-TECH Software Omniscient Code Generator (Lite mode) build 49521"
  6079  028B                     l479:	
  6080                           opt subtitle "HI-TECH Software Omniscient Code Generator (Lite mode) build 49521"
  6081                           
  6082  028B                     l1797:	
  6083  028B  0825               	movf	(___aldiv@quotient+3),w
  6084  028C  00F3               	movwf	(?___aldiv+3)
  6085  028D  0824               	movf	(___aldiv@quotient+2),w
  6086  028E  00F2               	movwf	(?___aldiv+2)
  6087  028F  0823               	movf	(___aldiv@quotient+1),w
  6088  0290  00F1               	movwf	(?___aldiv+1)
  6089  0291  0822               	movf	(___aldiv@quotient),w
  6090  0292  00F0               	movwf	(?___aldiv)
  6091                           opt subtitle "HI-TECH Software Omniscient Code Generator (Lite mode) build 49521"
  6092  0293  2A94               	goto	l480
  6093                           opt subtitle "HI-TECH Software Omniscient Code Generator (Lite mode) build 49521"
  6094  0294                     l1799:	
  6095                           opt subtitle "HI-TECH Software Omniscient Code Generator (Lite mode) build 49521"
  6096                           
  6097  0294                     l480:	
  6098  0294  0008               	return
  6099                           opt subtitle "HI-TECH Software Omniscient Code Generator (Lite mode) build 49521"
  6100                           
  6101  0295                     	__end_of___aldiv:
  6102                           opt subtitle "HI-TECH Software Omniscient Code Generator (Lite mode) build 49521"
  6103                           
  6104                           opt pagewidth 120
  6105                           
  6106                           	opt lm
  6107                           
  6108                           	processor	16F887
  6109                           clrc	macro
  6110                           	bcf	3,0
  6111                           	endm
  6112                           clrz	macro
  6113                           	bcf	3,2
  6114                           	endm
  6115                           setc	macro
  6116                           	bsf	3,0
  6117                           	endm
  6118                           setz	macro
  6119                           	bsf	3,2
  6120                           	endm
  6121                           skipc	macro
  6122                           	btfss	3,0
  6123                           	endm
  6124                           skipz	macro
  6125                           	btfss	3,2
  6126                           	endm
  6127                           skipnc	macro
  6128                           	btfsc	3,0
  6129                           	endm
  6130                           skipnz	macro
  6131                           	btfsc	3,2
  6132                           	endm
  6133                           indf	equ	0
  6134                           indf0	equ	0
  6135                           pc	equ	2
  6136  0D23                     __ptext464:	;psect for function ___lltoft
  6137                           opt subtitle "HI-TECH Software Omniscient Code Generator (Lite mode) build 49521"
  6138                           
  6139                           opt pagewidth 120
  6140                           
  6141  0038                     	__size_of___lltoft	equ	__end_of___lltoft-___lltoft
  6142                           opt subtitle "HI-TECH Software Omniscient Code Generator (Lite mode) build 49521"
  6143  0D23                     ___lltoft:	
  6144                           opt subtitle "HI-TECH Software Omniscient Code Generator (Lite mode) build 49521"
  6145                           
  6146                           opt pagewidth 120
  6147                           
  6148  0D23                     l1947:	
  6149  0D23  308E               	movlw	(08Eh)
  6150  0D24  00FC               	movwf	(??___lltoft+0)+0
  6151  0D25  087C               	movf	(??___lltoft+0)+0,w
  6152  0D26  00FD               	movwf	(___lltoft@exp)
  6153                           opt subtitle "HI-TECH Software Omniscient Code Generator (Lite mode) build 49521"
  6154  0D27  2D38               	goto	l1951
  6155                           opt subtitle "HI-TECH Software Omniscient Code Generator (Lite mode) build 49521"
  6156  0D28                     l513:	
  6157                           opt subtitle "HI-TECH Software Omniscient Code Generator (Lite mode) build 49521"
  6158                           
  6159  0D28                     l1949:	
  6160  0D28  3001               	movlw	01h
  6161  0D29                     u2055:
  6162  0D29  1003               	clrc
  6163  0D2A  1283               	bcf	status, 5	;RP0=0, select bank0
  6164  0D2B  1303               	bcf	status, 6	;RP1=0, select bank0
  6165  0D2C  0CAD               	rrf	(___lltoft@c+3),f
  6166  0D2D  0CAC               	rrf	(___lltoft@c+2),f
  6167  0D2E  0CAB               	rrf	(___lltoft@c+1),f
  6168  0D2F  0CAA               	rrf	(___lltoft@c),f
  6169  0D30  3EFF               	addlw	-1
  6170  0D31  1D03               	skipz
  6171  0D32  2D29               	goto	u2055
  6172                           opt subtitle "HI-TECH Software Omniscient Code Generator (Lite mode) build 49521"
  6173                           
  6174  0D33  3001               	movlw	(01h)
  6175  0D34  00FC               	movwf	(??___lltoft+0)+0
  6176  0D35  087C               	movf	(??___lltoft+0)+0,w
  6177  0D36  07FD               	addwf	(___lltoft@exp),f
  6178  0D37  2D38               	goto	l1951
  6179                           opt subtitle "HI-TECH Software Omniscient Code Generator (Lite mode) build 49521"
  6180                           
  6181  0D38                     l512:	
  6182                           opt subtitle "HI-TECH Software Omniscient Code Generator (Lite mode) build 49521"
  6183                           
  6184  0D38                     l1951:	
  6185  0D38  30FF               	movlw	high highword(-16777216)
  6186  0D39  1283               	bcf	status, 5	;RP0=0, select bank0
  6187  0D3A  1303               	bcf	status, 6	;RP1=0, select bank0
  6188  0D3B  052D               	andwf	(___lltoft@c+3),w
  6189  0D3C  1D03               	btfss	status,2
  6190  0D3D  2D3F               	goto	u2061
  6191  0D3E  2D40               	goto	u2060
  6192  0D3F                     u2061:
  6193  0D3F  2D28               	goto	l1949
  6194  0D40                     u2060:
  6195  0D40  2D41               	goto	l1953
  6196                           opt subtitle "HI-TECH Software Omniscient Code Generator (Lite mode) build 49521"
  6197  0D41                     l514:	
  6198                           opt subtitle "HI-TECH Software Omniscient Code Generator (Lite mode) build 49521"
  6199                           
  6200  0D41                     l1953:	
  6201  0D41  082A               	movf	(___lltoft@c),w
  6202  0D42  00F0               	movwf	(?___ftpack)
  6203  0D43  082B               	movf	(___lltoft@c+1),w
  6204  0D44  00F1               	movwf	(?___ftpack+1)
  6205  0D45  082C               	movf	(___lltoft@c+2),w
  6206  0D46  00F2               	movwf	(?___ftpack+2)
  6207  0D47  087D               	movf	(___lltoft@exp),w
  6208  0D48  00FC               	movwf	(??___lltoft+0)+0
  6209  0D49  087C               	movf	(??___lltoft+0)+0,w
  6210  0D4A  00F3               	movwf	0+(?___ftpack)+03h
  6211  0D4B  01F4               	clrf	0+(?___ftpack)+04h
  6212  0D4C  120A  158A  2785   	fcall	___ftpack
              120A  158A         
  6213  0D51  0870               	movf	(0+(?___ftpack)),w
  6214  0D52  1283               	bcf	status, 5	;RP0=0, select bank0
  6215  0D53  1303               	bcf	status, 6	;RP1=0, select bank0
  6216  0D54  00AA               	movwf	(?___lltoft)
  6217  0D55  0871               	movf	(1+(?___ftpack)),w
  6218  0D56  00AB               	movwf	(?___lltoft+1)
  6219  0D57  0872               	movf	(2+(?___ftpack)),w
  6220  0D58  00AC               	movwf	(?___lltoft+2)
  6221  0D59  2D5A               	goto	l515
  6222                           opt subtitle "HI-TECH Software Omniscient Code Generator (Lite mode) build 49521"
  6223  0D5A                     l1955:	
  6224                           opt subtitle "HI-TECH Software Omniscient Code Generator (Lite mode) build 49521"
  6225                           
  6226  0D5A                     l515:	
  6227  0D5A  0008               	return
  6228                           opt subtitle "HI-TECH Software Omniscient Code Generator (Lite mode) build 49521"
  6229                           
  6230  0D5B                     	__end_of___lltoft:
  6231                           opt subtitle "HI-TECH Software Omniscient Code Generator (Lite mode) build 49521"
  6232                           
  6233                           opt pagewidth 120
  6234                           
  6235                           	opt lm
  6236                           
  6237                           	processor	16F887
  6238                           clrc	macro
  6239                           	bcf	3,0
  6240                           	endm
  6241                           clrz	macro
  6242                           	bcf	3,2
  6243                           	endm
  6244                           setc	macro
  6245                           	bsf	3,0
  6246                           	endm
  6247                           setz	macro
  6248                           	bsf	3,2
  6249                           	endm
  6250                           skipc	macro
  6251                           	btfss	3,0
  6252                           	endm
  6253                           skipz	macro
  6254                           	btfss	3,2
  6255                           	endm
  6256                           skipnc	macro
  6257                           	btfsc	3,0
  6258                           	endm
  6259                           skipnz	macro
  6260                           	btfsc	3,2
  6261                           	endm
  6262                           indf	equ	0
  6263                           indf0	equ	0
  6264                           pc	equ	2
  6265                           pcl	equ	2
  6266                           status	equ	3
  6267                           fsr	equ	4
  6268  0F85                     __ptext465:	;psect for function ___ftpack
  6269                           opt subtitle "HI-TECH Software Omniscient Code Generator (Lite mode) build 49521"
  6270                           
  6271                           opt pagewidth 120
  6272                           
  6273  007B                     	__size_of___ftpack	equ	__end_of___ftpack-___ftpack
  6274                           opt subtitle "HI-TECH Software Omniscient Code Generator (Lite mode) build 49521"
  6275  0F85                     ___ftpack:	
  6276                           opt subtitle "HI-TECH Software Omniscient Code Generator (Lite mode) build 49521"
  6277                           
  6278                           opt pagewidth 120
  6279                           
  6280  0F85                     l1733:	
  6281  0F85  0873               	movf	(___ftpack@exp),w
  6282  0F86  1D03               	skipz
  6283  0F87  2F89               	goto	u1530
  6284  0F88  2F91               	goto	l1737
  6285  0F89                     u1530:
  6286                           opt subtitle "HI-TECH Software Omniscient Code Generator (Lite mode) build 49521"
  6287  0F89                     l1735:	
  6288  0F89  0872               	movf	(___ftpack@arg+2),w
  6289  0F8A  0471               	iorwf	(___ftpack@arg+1),w
  6290  0F8B  0470               	iorwf	(___ftpack@arg),w
  6291  0F8C  1D03               	skipz
  6292  0F8D  2F8F               	goto	u1541
  6293  0F8E  2F90               	goto	u1540
  6294  0F8F                     u1541:
  6295  0F8F  2FA7               	goto	l1743
  6296  0F90                     u1540:
  6297  0F90  2F91               	goto	l1737
  6298                           opt subtitle "HI-TECH Software Omniscient Code Generator (Lite mode) build 49521"
  6299  0F91                     l609:	
  6300                           opt subtitle "HI-TECH Software Omniscient Code Generator (Lite mode) build 49521"
  6301                           
  6302  0F91                     l1737:	
  6303  0F91  3000               	movlw	0x0
  6304  0F92  00F0               	movwf	(?___ftpack)
  6305  0F93  3000               	movlw	0x0
  6306  0F94  00F1               	movwf	(?___ftpack+1)
  6307  0F95  3000               	movlw	0x0
  6308  0F96  00F2               	movwf	(?___ftpack+2)
  6309  0F97  2FFF               	goto	l610
  6310                           opt subtitle "HI-TECH Software Omniscient Code Generator (Lite mode) build 49521"
  6311  0F98                     l1739:	
  6312  0F98  2FFF               	goto	l610
  6313                           opt subtitle "HI-TECH Software Omniscient Code Generator (Lite mode) build 49521"
  6314  0F99                     l607:	
  6315                           opt subtitle "HI-TECH Software Omniscient Code Generator (Lite mode) build 49521"
  6316  0F99  2FA7               	goto	l1743
  6317                           opt subtitle "HI-TECH Software Omniscient Code Generator (Lite mode) build 49521"
  6318  0F9A                     l612:	
  6319                           opt subtitle "HI-TECH Software Omniscient Code Generator (Lite mode) build 49521"
  6320                           
  6321  0F9A                     l1741:	
  6322  0F9A  3001               	movlw	(01h)
  6323  0F9B  00F5               	movwf	(??___ftpack+0)+0
  6324  0F9C  0875               	movf	(??___ftpack+0)+0,w
  6325  0F9D  07F3               	addwf	(___ftpack@exp),f
  6326                           opt subtitle "HI-TECH Software Omniscient Code Generator (Lite mode) build 49521"
  6327  0F9E  3001               	movlw	01h
  6328  0F9F                     u1555:
  6329  0F9F  1003               	clrc
  6330  0FA0  0CF2               	rrf	(___ftpack@arg+2),f
  6331  0FA1  0CF1               	rrf	(___ftpack@arg+1),f
  6332  0FA2  0CF0               	rrf	(___ftpack@arg),f
  6333  0FA3  3EFF               	addlw	-1
  6334  0FA4  1D03               	skipz
  6335  0FA5  2F9F               	goto	u1555
  6336                           opt subtitle "HI-TECH Software Omniscient Code Generator (Lite mode) build 49521"
  6337  0FA6  2FA7               	goto	l1743
  6338                           opt subtitle "HI-TECH Software Omniscient Code Generator (Lite mode) build 49521"
  6339                           
  6340  0FA7                     l611:	
  6341                           opt subtitle "HI-TECH Software Omniscient Code Generator (Lite mode) build 49521"
  6342                           
  6343  0FA7                     l1743:	
  6344  0FA7  30FE               	movlw	low highword(0FE0000h)
  6345  0FA8  0572               	andwf	(___ftpack@arg+2),w
  6346  0FA9  1D03               	btfss	status,2
  6347  0FAA  2FAC               	goto	u1561
  6348  0FAB  2FAD               	goto	u1560
  6349  0FAC                     u1561:
  6350  0FAC  2F9A               	goto	l1741
  6351  0FAD                     u1560:
  6352  0FAD  2FC5               	goto	l614
  6353                           opt subtitle "HI-TECH Software Omniscient Code Generator (Lite mode) build 49521"
  6354  0FAE                     l613:	
  6355                           opt subtitle "HI-TECH Software Omniscient Code Generator (Lite mode) build 49521"
  6356  0FAE  2FC5               	goto	l614
  6357                           opt subtitle "HI-TECH Software Omniscient Code Generator (Lite mode) build 49521"
  6358  0FAF                     l615:	
  6359                           opt subtitle "HI-TECH Software Omniscient Code Generator (Lite mode) build 49521"
  6360                           
  6361  0FAF                     l1745:	
  6362  0FAF  3001               	movlw	(01h)
  6363  0FB0  00F5               	movwf	(??___ftpack+0)+0
  6364  0FB1  0875               	movf	(??___ftpack+0)+0,w
  6365  0FB2  07F3               	addwf	(___ftpack@exp),f
  6366                           opt subtitle "HI-TECH Software Omniscient Code Generator (Lite mode) build 49521"
  6367                           
  6368  0FB3                     l1747:	
  6369  0FB3  3001               	movlw	01h
  6370  0FB4  07F0               	addwf	(___ftpack@arg),f
  6371  0FB5  3000               	movlw	0
  6372  0FB6  1803               	skipnc
  6373  0FB7  3001               movlw 1
  6374  0FB8  07F1               	addwf	(___ftpack@arg+1),f
  6375  0FB9  3000               	movlw	0
  6376  0FBA  1803               	skipnc
  6377  0FBB  3001               movlw 1
  6378  0FBC  07F2               	addwf	(___ftpack@arg+2),f
  6379                           opt subtitle "HI-TECH Software Omniscient Code Generator (Lite mode) build 49521"
  6380                           
  6381  0FBD                     l1749:	
  6382  0FBD  3001               	movlw	01h
  6383  0FBE                     u1575:
  6384  0FBE  1003               	clrc
  6385  0FBF  0CF2               	rrf	(___ftpack@arg+2),f
  6386  0FC0  0CF1               	rrf	(___ftpack@arg+1),f
  6387  0FC1  0CF0               	rrf	(___ftpack@arg),f
  6388  0FC2  3EFF               	addlw	-1
  6389  0FC3  1D03               	skipz
  6390  0FC4  2FBE               	goto	u1575
  6391                           opt subtitle "HI-TECH Software Omniscient Code Generator (Lite mode) build 49521"
  6392                           
  6393                           opt pagewidth 120
  6394  0FC5                     l614:	
  6395                           opt subtitle "HI-TECH Software Omniscient Code Generator (Lite mode) build 49521"
  6396  0FC5  30FF               	movlw	low highword(0FF0000h)
  6397  0FC6  0572               	andwf	(___ftpack@arg+2),w
  6398  0FC7  1D03               	btfss	status,2
  6399  0FC8  2FCA               	goto	u1581
  6400  0FC9  2FCB               	goto	u1580
  6401  0FCA                     u1581:
  6402  0FCA  2FAF               	goto	l1745
  6403  0FCB                     u1580:
  6404  0FCB  2FD8               	goto	l1753
  6405                           opt subtitle "HI-TECH Software Omniscient Code Generator (Lite mode) build 49521"
  6406  0FCC                     l616:	
  6407                           opt subtitle "HI-TECH Software Omniscient Code Generator (Lite mode) build 49521"
  6408  0FCC  2FD8               	goto	l1753
  6409                           opt subtitle "HI-TECH Software Omniscient Code Generator (Lite mode) build 49521"
  6410  0FCD                     l618:	
  6411                           opt subtitle "HI-TECH Software Omniscient Code Generator (Lite mode) build 49521"
  6412                           
  6413  0FCD                     l1751:	
  6414  0FCD  3001               	movlw	low(01h)
  6415  0FCE  02F3               	subwf	(___ftpack@exp),f
  6416                           opt subtitle "HI-TECH Software Omniscient Code Generator (Lite mode) build 49521"
  6417  0FCF  3001               	movlw	01h
  6418  0FD0                     u1595:
  6419  0FD0  1003               	clrc
  6420  0FD1  0DF0               	rlf	(___ftpack@arg),f
  6421  0FD2  0DF1               	rlf	(___ftpack@arg+1),f
  6422  0FD3  0DF2               	rlf	(___ftpack@arg+2),f
  6423  0FD4  3EFF               	addlw	-1
  6424  0FD5  1D03               	skipz
  6425  0FD6  2FD0               	goto	u1595
  6426  0FD7  2FD8               	goto	l1753
  6427                           opt subtitle "HI-TECH Software Omniscient Code Generator (Lite mode) build 49521"
  6428                           
  6429  0FD8                     l617:	
  6430                           opt subtitle "HI-TECH Software Omniscient Code Generator (Lite mode) build 49521"
  6431                           
  6432  0FD8                     l1753:	
  6433  0FD8  1FF1               	btfss	(___ftpack@arg+1),(15)&7
  6434  0FD9  2FDB               	goto	u1601
  6435  0FDA  2FDC               	goto	u1600
  6436  0FDB                     u1601:
  6437  0FDB  2FCD               	goto	l1751
  6438  0FDC                     u1600:
  6439                           opt subtitle "HI-TECH Software Omniscient Code Generator (Lite mode) build 49521"
  6440  0FDC                     l619:	
  6441                           opt subtitle "HI-TECH Software Omniscient Code Generator (Lite mode) build 49521"
  6442  0FDC  1873               	btfsc	(___ftpack@exp),(0)&7
  6443  0FDD  2FDF               	goto	u1611
  6444  0FDE  2FE0               	goto	u1610
  6445  0FDF                     u1611:
  6446  0FDF  2FE6               	goto	l620
  6447  0FE0                     u1610:
  6448                           opt subtitle "HI-TECH Software Omniscient Code Generator (Lite mode) build 49521"
  6449                           
  6450  0FE0                     l1755:	
  6451  0FE0  30FF               	movlw	0FFh
  6452  0FE1  05F0               	andwf	(___ftpack@arg),f
  6453  0FE2  307F               	movlw	07Fh
  6454  0FE3  05F1               	andwf	(___ftpack@arg+1),f
  6455  0FE4  30FF               	movlw	0FFh
  6456  0FE5  05F2               	andwf	(___ftpack@arg+2),f
  6457                           opt subtitle "HI-TECH Software Omniscient Code Generator (Lite mode) build 49521"
  6458  0FE6                     l620:	
  6459                           opt subtitle "HI-TECH Software Omniscient Code Generator (Lite mode) build 49521"
  6460  0FE6  1003               	clrc
  6461  0FE7  0CF3               	rrf	(___ftpack@exp),f
  6462                           opt subtitle "HI-TECH Software Omniscient Code Generator (Lite mode) build 49521"
  6463                           
  6464                           opt pagewidth 120
  6465  0FE8                     l1757:	
  6466  0FE8  0873               	movf	(___ftpack@exp),w
  6467  0FE9  00F5               	movwf	((??___ftpack+0)+0)
  6468  0FEA  01F6               	clrf	((??___ftpack+0)+0+1)
  6469  0FEB  01F7               	clrf	((??___ftpack+0)+0+2)
  6470  0FEC  3010               	movlw	010h
  6471  0FED                     u1625:
  6472  0FED  1003               	clrc
  6473  0FEE  0DF5               	rlf	(??___ftpack+0)+0,f
  6474  0FEF  0DF6               	rlf	(??___ftpack+0)+1,f
  6475  0FF0  0DF7               	rlf	(??___ftpack+0)+2,f
  6476  0FF1                     u1620:
  6477  0FF1  3EFF               	addlw	-1
  6478  0FF2  1D03               	skipz
  6479  0FF3  2FED               	goto	u1625
  6480  0FF4  0875               	movf	0+(??___ftpack+0)+0,w
  6481  0FF5  04F0               	iorwf	(___ftpack@arg),f
  6482  0FF6  0876               	movf	1+(??___ftpack+0)+0,w
  6483  0FF7  04F1               	iorwf	(___ftpack@arg+1),f
  6484  0FF8  0877               	movf	2+(??___ftpack+0)+0,w
  6485  0FF9  04F2               	iorwf	(___ftpack@arg+2),f
  6486                           opt subtitle "HI-TECH Software Omniscient Code Generator (Lite mode) build 49521"
  6487                           
  6488  0FFA                     l1759:	
  6489  0FFA  0874               	movf	(___ftpack@sign),w
  6490  0FFB  1D03               	skipz
  6491  0FFC  2FFE               	goto	u1630
  6492  0FFD  2FFF               	goto	l621
  6493  0FFE                     u1630:
  6494                           opt subtitle "HI-TECH Software Omniscient Code Generator (Lite mode) build 49521"
  6495                           
  6496  0FFE                     l1761:	
  6497  0FFE  17F2               	bsf	(___ftpack@arg)+(23/8),(23)&7
  6498                           opt subtitle "HI-TECH Software Omniscient Code Generator (Lite mode) build 49521"
  6499  0FFF                     l621:	
  6500                           opt subtitle "HI-TECH Software Omniscient Code Generator (Lite mode) build 49521"
  6501                           
  6502                           opt pagewidth 120
  6503  0FFF                     l610:	
  6504  0FFF  0008               	return
  6505                           opt subtitle "HI-TECH Software Omniscient Code Generator (Lite mode) build 49521"
  6506                           
  6507  1000                     	__end_of___ftpack:
  6508                           opt subtitle "HI-TECH Software Omniscient Code Generator (Lite mode) build 49521"
  6509                           
  6510                           opt pagewidth 120
  6511  0000                     __ptext466:	;psect for function ___ftpack
  6512                           opt subtitle "HI-TECH Software Omniscient Code Generator (Lite mode) build 49521"
  6513  007E                     	btemp set 07Eh
  6514                           opt subtitle "HI-TECH Software Omniscient Code Generator (Lite mode) build 49521"
  6515                           
  6516                           opt pagewidth 120
  6517  007E                     	wtemp0 set btemp


Data Sizes:
    Strings     136
    Constant    0
    Data        0
    BSS         0
    Persistent  0
    Stack       0

Auto Spaces:
    Space          Size  Autos    Used
    COMMON           14     14      14
    BANK0            80     56      56
    BANK1            80      0       0
    BANK3            96      0       0
    BANK2            96      0       0

Pointer List with Targets:

    ?___ftpack	float  size(1) Largest target is 4
		 -> uartInit@baudrate(BANK0[4]), 

    ?___wmul	unsigned int  size(1) Largest target is 0

    ?___awdiv	int  size(1) Largest target is 0

    ?___aldiv	long  size(1) Largest target is 0

    ?___lwdiv	unsigned int  size(1) Largest target is 0

    ?___lwmod	unsigned int  size(1) Largest target is 0

    ?___fttol	long  size(1) Largest target is 0

    ?___lltoft	float  size(1) Largest target is 0

    ?___ftdiv	float  size(1) Largest target is 0

    ?___ftadd	float  size(1) Largest target is 4
		 -> uartInit@baudrate(BANK0[4]), 

    uartPutstr@s	PTR const unsigned char  size(1) Largest target is 23
		 -> STR_12(CODE[23]), STR_11(CODE[13]), STR_10(CODE[7]), STR_9(CODE[15]), 
		 -> STR_8(CODE[14]), STR_7(CODE[10]), STR_6(CODE[10]), STR_5(CODE[12]), 
		 -> STR_4(CODE[19]), STR_3(CODE[18]), STR_2(CODE[14]), STR_1(CODE[20]), 


Critical Paths under _main in COMMON

    _uartInit->___lltoft
    _uartPutstr->_uartTransmit
    _uartNumber->___lwdiv
    _motor->_setPwmRC1
    _motor->_setPwmRC2
    _setPwmRC1->___awdiv
    _setPwmRC2->___awdiv
    ___ftadd->___lltoft
    ___ftdiv->___lltoft
    ___fttol->___ftpack
    ___awdiv->___wmul
    ___lltoft->___fttol

Critical Paths under _main in BANK0

    _main->_uartInit
    _uartInit->___ftadd
    _motor->_setPwmRC1
    _motor->_setPwmRC2
    _setPwmRC1->___aldiv
    _setPwmRC2->___aldiv
    ___ftadd->___ftdiv
    ___ftdiv->___lltoft
    ___lltoft->___fttol

Critical Paths under _main in BANK1

    None.

Critical Paths under _main in BANK3

    None.

Critical Paths under _main in BANK2

    None.

Call Graph Tables:

 ---------------------------------------------------------------------------------
 (Depth) Function   	        Calls       Base Space   Used Autos Params    Refs
 ---------------------------------------------------------------------------------
 (0) _main                                                 6     6      0    5554
                                             50 BANK0      6     6      0
                            _picInit
                           _uartInit
                               _beep
                         _uartPutstr
                              _motor
                        _uartReceive
                         _uartNumber
 ---------------------------------------------------------------------------------
 (1) _uartInit                                            10     6      4    2248
                                             43 BANK0      7     3      4
                           ___lltoft
                            ___ftdiv
                            ___ftadd
                            ___fttol
 ---------------------------------------------------------------------------------
 (1) _uartPutstr                                           2     2      0      67
                                              1 COMMON     2     2      0
                       _uartTransmit
 ---------------------------------------------------------------------------------
 (1) _uartReceive                                          0     0      0       0
 ---------------------------------------------------------------------------------
 (1) _uartNumber                                          19    15      4     797
                                              8 COMMON     4     0      4
                                              0 BANK0     15    15      0
                            ___lwmod
                            ___lwdiv
                       _uartTransmit
 ---------------------------------------------------------------------------------
 (2) _uartTransmit                                         1     1      0      22
                                              0 COMMON     1     1      0
 ---------------------------------------------------------------------------------
 (1) _picInit                                              0     0      0       0
 ---------------------------------------------------------------------------------
 (1) _beep                                                 7     5      2     137
                                              0 COMMON     7     5      2
 ---------------------------------------------------------------------------------
 (1) _motor                                                6     5      1    2103
                                             10 BANK0      6     5      1
                             ___bmul
                          _setPwmRC1
                          _setPwmRC2
 ---------------------------------------------------------------------------------
 (2) _setPwmRC1                                            7     3      4     781
                                             11 COMMON     3     3      0
                                              6 BANK0      4     0      4
                            ___aldiv
                             ___wmul
                            ___awdiv
 ---------------------------------------------------------------------------------
 (2) _setPwmRC2                                            7     3      4     781
                                             11 COMMON     3     3      0
                                              6 BANK0      4     0      4
                            ___aldiv
                             ___wmul
                            ___awdiv
 ---------------------------------------------------------------------------------
 (2) ___bmul                                               4     3      1      92
                                              0 COMMON     4     3      1
 ---------------------------------------------------------------------------------
 (3) ___wmul                                               6     2      4      92
                                              0 COMMON     6     2      4
 ---------------------------------------------------------------------------------
 (2) ___lwdiv                                              8     4      4     162
                                              0 COMMON     8     4      4
 ---------------------------------------------------------------------------------
 (2) ___lwmod                                              6     2      4     159
                                              0 COMMON     6     2      4
 ---------------------------------------------------------------------------------
 (2) ___ftadd                                             13     7      6    1049
                                             30 BANK0     13     7      6
                           ___ftpack
                            ___ftdiv (ARG)
                           ___lltoft (ARG)
                            ___fttol (ARG)
 ---------------------------------------------------------------------------------
 (2) ___ftdiv                                             16    10      6     489
                                             14 BANK0     16    10      6
                           ___ftpack
                           ___lltoft (ARG)
                            ___fttol (ARG)
 ---------------------------------------------------------------------------------
 (2) ___fttol                                             14    10      4     252
                                              8 COMMON     4     0      4
                                              0 BANK0     10    10      0
                           ___ftpack (ARG)
 ---------------------------------------------------------------------------------
 (3) ___awdiv                                              9     5      4     300
                                              6 COMMON     5     1      4
                                              0 BANK0      4     4      0
                             ___wmul (ARG)
 ---------------------------------------------------------------------------------
 (3) ___aldiv                                             15     7      8     300
                                              0 COMMON     9     1      8
                                              0 BANK0      6     6      0
 ---------------------------------------------------------------------------------
 (2) ___lltoft                                             6     2      4     278
                                             12 COMMON     2     2      0
                                             10 BANK0      4     0      4
                           ___ftpack
                            ___fttol (ARG)
 ---------------------------------------------------------------------------------
 (3) ___ftpack                                             8     3      5     209
                                              0 COMMON     8     3      5
 ---------------------------------------------------------------------------------
 Estimated maximum stack depth 3
 ---------------------------------------------------------------------------------

 Call Graph Graphs:

 _main (ROOT)
   _picInit
   _uartInit
     ___lltoft
       ___ftpack
       ___fttol (ARG)
         ___ftpack (ARG)
     ___ftdiv
       ___ftpack
       ___lltoft (ARG)
         ___ftpack
         ___fttol (ARG)
           ___ftpack (ARG)
       ___fttol (ARG)
         ___ftpack (ARG)
     ___ftadd
       ___ftpack
       ___ftdiv (ARG)
         ___ftpack
         ___lltoft (ARG)
           ___ftpack
           ___fttol (ARG)
             ___ftpack (ARG)
         ___fttol (ARG)
           ___ftpack (ARG)
       ___lltoft (ARG)
         ___ftpack
         ___fttol (ARG)
           ___ftpack (ARG)
       ___fttol (ARG)
         ___ftpack (ARG)
     ___fttol
       ___ftpack (ARG)
   _beep
   _uartPutstr
     _uartTransmit
   _motor
     ___bmul
     _setPwmRC1
       ___aldiv
       ___wmul
       ___awdiv
         ___wmul (ARG)
     _setPwmRC2
       ___aldiv
       ___wmul
       ___awdiv
         ___wmul (ARG)
   _uartReceive
   _uartNumber
     ___lwmod
     ___lwdiv
     _uartTransmit

 Address spaces:
Name               Size   Autos  Total    Cost      Usage
BITCOMMON            E      0       0       0        0.0%
EEDATA             100      0       0       0        0.0%
NULL                 0      0       0       0        0.0%
CODE                 0      0       0       0        0.0%
COMMON               E      E       E       1      100.0%
BITSFR0              0      0       0       1        0.0%
SFR0                 0      0       0       1        0.0%
BITSFR1              0      0       0       2        0.0%
SFR1                 0      0       0       2        0.0%
STACK                0      0       3       2        0.0%
ABS                  0      0       0       3        0.0%
BITBANK0            50      0       0       4        0.0%
BITSFR3              0      0       0       4        0.0%
SFR3                 0      0       0       4        0.0%
BANK0               50     38      38       5       70.0%
BITSFR2              0      0       0       5        0.0%
SFR2                 0      0       0       5        0.0%
BITBANK1            50      0       0       6        0.0%
BANK1               50      0       0       7        0.0%
BITBANK3            60      0       0       8        0.0%
BANK3               60      0       0       9        0.0%
BITBANK2            60      0       0      10        0.0%
BANK2               60      0       0      11        0.0%
DATA                 0      0       0      12        0.0%


Microchip Technology PIC Macro Assembler V1.12 build 49521 
Symbol Table                                                                                   Fri Jan 04 22:28:26 2013

        uartInit@baudrate 004B                         pc 0002            ___bmul@product 0072  
             __CFG_CP$OFF 0000                        l91 0481                        l92 04F8  
                      l93 04F7                        l94 04F8                        l97 0CAB  
                      l98 0CAB                        l99 0CB2              ___awdiv@sign 0021  
                      fsr 0004       ___wmul@multiplicand 0072              ___ftadd@exp1 004A  
            ___ftadd@exp2 0049              ___ftadd@sign 0048                       l100 0CB4  
                     l110 0CBF                       l111 0CBF                       l103 00A5  
                     l120 011D                       l112 0CC4                       l104 0094  
                     l121 014D                       l113 0CC6                       l105 00B2  
                     l130 0EA5                       l122 0134                       l106 00B2  
                     l123 0143                       l124 014D                       l116 00BE  
                     l140 0774                       l117 00CD                       l109 0CBE  
                     l133 0660                       l118 00CF                       l150 07A5  
                     l142 0761                       l134 07BB                       l127 0F10  
                     l119 0110                       l151 07B9                       l143 07B7  
                     l135 0728                       l160 0CF8                       l152 07BA  
                     l144 0796                       l136 0752                       l321 0528  
                     l153 07FB                       l322 063D                       l170 0E32  
                     l154 07FA                       l146 0783                       l138 073F  
                     l331 0581                       l323 0545                       l171 0E3A  
                     l163 0DF3                       l155 07FC                       l139 07B8  
                     l147 07B6                       l420 0F4A                       l340 05B8  
                     l332 0582                       l180 01B9                       l164 0E3A  
                     l156 07FD                       l148 07B5                       l421 0F4B  
                     l341 05B9                       l333 0590                       l325 0544  
                     l181 01D4                       l165 0E08                       l157 07FD  
                     l422 0F64                       l342 05C7                       l334 0583  
                     l326 054E                       l270 0CD2                       l182 01C7  
                     l174 016B                       l166 0DF9                       l423 0F72  
                     l415 0F20                       l343 05BA                       l335 0597  
                     l327 0553                       l319 0530                       l271 0CDC  
                     l183 01D4                       l175 0186                       l167 0E12  
                     l512 0D38                       l424 0F7D                       l416 0F2E  
                     l344 05CE                       l328 0598                       l336 05CF  
                     l272 0CDE                       l184 01D3                       l176 0179  
                     l168 0E27                       l513 0D28                       l425 0F84  
                     l417 0F73                       l345 05E4                       l337 05CF  
                     l329 0568                       l281 0DE3                       l185 01DF  
                     l177 0186                       l169 0E18                       l610 0FFF  
                     l514 0D41                       l418 0F45                       l346 05F9  
                     l338 059F                       l282 0DB5                       l186 01EF  
                     l178 0185                       l611 0FA7                       l515 0D5A  
                     l419 0F39                       l363 0356                       l347 0621  
                     l291 0D96                       l283 0DA9                       l275 0CFC  
                     l179 0191                       l620 0FE6                       l612 0F9A  
                     l364 0402                       l292 0D70                       l284 0DBA  
                     l276 0D06                       l621 0FFF                       l613 0FAE  
                     l365 036F                       l293 0D64                       l285 0DBB  
                     l277 0D1B                       l269 0CC9                       l614 0FC5  
                     l470 0204                       l390 0321                       l366 03B5  
                     l294 0D75                       l286 0DD4                       l278 0D22  
                     l615 0FAF                       l607 0F99                       l471 0218  
                     l391 030D                       l367 03D7                       l295 0D76  
                     l287 0DE2                       l616 0FCC                       l480 0294  
                     l472 027B                       l392 031A                       l384 02B2  
                     l368 03E6                       l296 0D87                       l288 0DEA  
                     l617 0FD8                       l609 0F91                       l473 0239  
                     l393 030E                       l385 033A                       l297 0D95  
                     l618 0FCD                       l474 022B                       l394 0320  
                     l386 02FD                       l298 0D9D                       l619 0FDC  
                     l475 023E                       l395 0331                       l387 02E9  
                     l476 023F                       l388 02EA                       l477 026A  
                     l389 02FC                       l478 027A                       l479 028B  
                     _RB0 0030                       _RB1 0031                       _RB2 0032  
                     _RB3 0033                       _RB4 0034                       _RB5 0035  
                     _RB7 0037                       _PR2 0092              __CFG_CPD$OFF 0000  
                     _RX9 00C6                       _TX9 04C6                       fsr0 0004  
                     indf 0000              __CFG_LVP$OFF 0000              ___ftdiv@cntr 0038  
            ___ftdiv@sign 003D                      l2001 03A9                      l2011 03D7  
                    l2003 03B5                      l2013 03DF                      l2005 03BD  
                    l2101 0583                      l2021 0155                      l2015 03E6  
                    l2007 03CB                      l2111 05AF                      l2103 0590  
                    l2031 0174                      l2023 0159                      l2017 0402  
                    l2009 03D5                      l2121 05E8                      l2113 05BA  
                    l2105 0598                      l2041 0191                      l2033 0179  
                    l2025 015B                      l2201 0745                      l2131 0621  
                    l2123 05F9                      l2115 05C7                      l2107 059F  
                    l2051 01C0                      l2043 01A1                      l2035 017E  
                    l2027 016B                      l2019 0151                      l2211 0774  
                    l2203 0752                      l2133 063D                      l2125 060A  
                    l2117 05D3                      l2109 05A9                      l2061 01DA  
                    l2053 01C2                      l2045 01A7                      l2037 0180  
                    l2029 0172                      l2141 0421                      l2221 079E  
                    l2213 077C                      l2205 075A                      l2127 060E  
                    l2119 05E4                      l2071 051D                      l2063 01DF  
                    l2055 01C7                      l2047 01A9                      l2039 018C  
                    l2143 0481                      l2135 0403                      l2231 07D9  
                    l2223 07A5                      l2215 0783                      l2207 0761  
                    l2151 0641                      l2129 061E                      l2081 053A  
                    l2073 0528                      l2065 04F9                      l2057 01CC  
                    l2049 01B9                      l2145 0494                      l2137 040C  
                    l2233 07DF                      l2225 07AB                      l2217 0789  
                    l2209 0767                      l2161 067C                      l2153 0660  
                    l2091 0554                      l2083 0545                      l2075 052F  
                    l2067 0513                      l2059 01CE                      l2147 0497  
                    l2139 041E                      l2235 07E5                      l2227 07BF  
                    l2219 0796                      l2171 06A8                      l2163 0682  
                    l2155 0666                      l2093 055A                      l2085 0549  
                    l2077 0530                      l2069 0517                      l1701 0DD2  
                    l2237 07EF                      l2229 07D3                      l2181 06E2  
                    l2173 06B1                      l2165 0688                      l2157 0670  
                    l2149 063E                      l2095 0568                      l2087 054D  
                    l2079 0534                      l1711 0D5B                      l1703 0DD4  
                    l2191 0721                      l2183 06F0                      l2175 06BF  
                    l2167 068E                      l2159 0676                      l2097 0572  
                    l2089 0552                      l1721 0D76                      l1713 0D61  
                    l1705 0DDB                      l1641 0CB2                      l1801 0093  
                    l2193 0728                      l2185 06FC                      l2177 06CB  
                    l2169 069A                      l2099 0578                      l1731 0D9D  
                    l1723 0D80                      l1715 0D64                      l1707 0DE3  
                    l1651 0CDF                      l1811 00B6                      l1643 0CB5  
                    l1803 0094                      l2195 0732                      l2187 070A  
                    l2179 06D9                      l1741 0F9A                      l1733 0F85  
                    l1901 0331                      l1725 0D87                      l1717 0D6B  
                    l1709 0DEA                      l1661 0CCD                      l1653 0CE4  
                    l1821 00CF                      l1813 00BD                      l1645 0CBB  
                    l1805 00A0                      l2197 0738                      l2189 0713  
                    l1751 0FCD                      l1743 0FA7                      l1735 0F89  
                    l1911 0F20                      l1903 033A                      l1727 0D8E  
                    l1719 0D70                      l1671 0CDE                      l1663 0CD2  
                    l1655 0CF2                      l1639 0CAA                      l1831 0116  
                    l1823 00ED                      l1815 00BE                      l1647 0CC4  
                    l1807 00A5                      l2199 073F                      l1761 0FFE  
                    l1753 0FD8                      l1745 0FAF                      l1737 0F91  
                    l1921 0F36                      l1913 0F24                      l1905 0F11  
                    l1729 0D96                      l1681 0D1B                      l1673 0CF9  
                    l1665 0CD4                      l1657 0CF4                      l1841 0143  
                    l1833 011C                      l1825 00F1                      l1817 00C3  
                    l1809 00B3                      l1649 0CC6                      l1755 0FE0  
                    l1747 0FB3                      l1739 0F98                      l1771 0218  
                    l1763 01F0                      l1931 0F5C                      l1923 0F39  
                    l1915 0F29                      l1907 0F18                      l1691 0DA9  
                    l1683 0D22                      l1675 0CFC                      l1667 0CD6  
                    l1659 0CC8                      l1851 0DF9                      l1843 0147  
                    l1835 011D                      l1827 0109                      l1819 00C7  
                    l1757 0FE8                      l1749 0FBD                      l1781 023F  
                    l1773 0220                      l1765 01F7                      l1941 0F77  
                    l1933 0F62                      l1925 0F40                      l1917 0F2E  
                    l1909 0F1D                      l1861 0295                      l1693 0DB0  
                    l1685 0D9E                      l1677 0D00                      l1669 0CDC  
                    l1853 0E15                      l1845 0DEC                      l1837 0128  
                    l1829 0110                      l1759 0FFA                      l1951 0D38  
                    l1791 0273                      l1783 0248                      l1775 0228  
                    l1767 0208                      l1943 0F7D                      l1935 0F64  
                    l1927 0F45                      l1919 0F30                      l1871 02C5  
                    l1863 02A8                      l1695 0DB5                      l1687 0DA0  
                    l1679 0D0D                      l1855 0E18                      l1847 0DF2  
                    l1839 0134                      l1953 0D41                      l1785 025A  
                    l1777 022B                      l1793 027B                      l1769 0213  
                    l1945 0F84                      l1937 0F6B                      l1929 0F4B  
                    l1881 02DF                      l1873 02CB                      l1865 02B1  
                    l1697 0DBB                      l1689 0DA6                      l1961 0EC7  
                    l1857 0E32                      l1849 0DF6                      l1955 0D5A  
                    l1947 0D23                      l1795 027F                      l1787 0268  
                    l1779 0239                      l1939 0F73                      l1891 030C  
                    l1883 02E8                      l1875 02D2                      l1867 02B2  
                    l1699 0DCC                      l1971 0E5C                      l1963 0EF0  
                    l1859 0E34                      l1949 0D28                      l1797 028B  
                    l1789 026A                      l1893 030E                      l1885 02EA  
                    l1877 02D4                      l1869 02C4                      l1981 0355  
                    l1973 0E85                      l1965 0F03                      l1957 0EA6  
                    l1799 0294                      l1895 031A                      l1879 02D8  
                    l1887 02FD                      l1991 0375                      l1983 0356  
                    l1975 0E98                      l1967 0E3B                      l1959 0EAC  
                    l1889 0303                      l1897 0321                      l1993 037A  
                    l1985 0367                      l1977 033B                      l1969 0E41  
                    l1899 0325                      l1995 038C                      l1987 036E  
                    l1979 034E                      l1997 039E                      l1989 036F  
                    l1999 03A2                      STR_1 0020                      STR_2 0059  
                    STR_3 0047                      STR_4 0034                      STR_5 0074  
                    STR_6 0080                      STR_7 005D                      STR_8 004B  
                    STR_9 0038                      _BRGH 04C2                      _CREN 00C4  
                    u2010 0F5C                      u2011 0F5B                      u2100 0367  
                    u2005 0F4C                      u2101 0366                      u2030 0F71  
                    u2110 0385                      u1310 0CB1                      u2031 0F70  
                    u2015 0F58                      u1311 0CB0                      u2040 0F77  
                    u2120 0397                      u1400 0DA6                      u2200 018C  
                    u1320 0CBB                      u2025 0F65                      u1401 0DA5  
                    u2201 018B                      u1321 0CBA                      u2210 01A7  
                    u1330 0CC3                      u2115 0381                      u2211 01A6  
                    u1331 0CC2                      u2060 0D40                      u2140 03CB  
                    u2300 0544                      u1500 0D80                      u1420 0DB9  
                    u1340 0CCD                      u2220 01C0                      u2061 0D3F  
                    u2141 03CA                      u2125 0393                      u2301 0543  
                    u1501 0D7F                      u1421 0DB8                      u1341 0CCC  
                    u2221 01BF                      u2310 054D                      u1350 0CDB  
                    u2230 01CC                      u2055 0D29                      u2135 03B6  
                    u2311 054C                      u1415 0DAA                      u1351 0CDA  
                    u2231 01CB                      u1600 0FDC                      u2160 03E5  
                    u2320 0552                      u1520 0D94                      u1440 0DCC  
                    u1360 0D00                      u2240 01DA                      u1601 0FDB  
                    u2161 03E4                      u2145 03C7                      u2321 0551  
                    u1521 0D93                      u1505 0D7C                      u1441 0DCB  
                    u1361 0CFF                      u2241 01D9                      u1610 0FE0  
                    u1530 0F89                      u2090 034E                      u2410 05AF  
                    u2330 0567                      u2250 0517                      u2170 0159  
                    u1611 0FDF                      u2155 03D8                      u2091 034D  
                    u2411 05AE                      u2331 0566                      u1515 0D88  
                    u1435 0DBC                      u2075 0F07                      u2171 0158  
                    u1620 0FF1                      u1540 0F90                      u1700 025A  
                    u2420 05B7                      u2260 051D                      u1460 0DE1  
                    u2180 0172                      u2500 0494                      u1541 0F8F  
                    u1701 0259                      u2421 05B6                      u2405 05A0  
                    u2261 051C                      u1461 0DE0                      u1445 0DC8  
                    u2085 0E9C                      u2181 0171                      u2501 0493  
                    u1630 0FFE                      u2350 0578                      u2270 0527  
                    u1470 0D61                      u1390 0D1A                      u2190 017E  
                    u2510 0666                      u2351 0577                      u2271 0526  
                    u1471 0D60                      u1455 0DD5                      u1391 0D19  
                    u1375 0D07                      u2191 017D                      u2511 0665  
                    u1560 0FAD                      u1720 0279                      u1640 01F7  
                    u2440 05CD                      u2360 0580                      u2280 0534  
                    u1800 014C                      u2600 07BF                      u2520 0738  
                    u1625 0FED                      u1561 0FAC                      u1721 0278  
                    u1705 0256                      u1641 01F6                      u2441 05CC  
                    u2361 057F                      u2345 0569                      u1385 0D0E  
                    u1801 014B                      u2505 0490                      u2601 07BE  
                    u2521 0737                      u1730 027F                      u1650 0208  
                    u2450 05D3                      u2290 053A                      u1490 0D74  
                    u1810 0DF1                      u2530 073E                      u1555 0F9F  
                    u1715 026B                      u1651 0207                      u2451 05D2  
                    u2435 05BB                      u2291 0539                      u1491 0D73  
                    u1811 0DF0                      u2531 073D                      u1580 0FCB  
                    u1660 0228                      u1900 02FB                      u2460 05E8  
                    u2380 0596                      u1820 0E12                      u1740 00B1  
                    u2540 075A                      u1581 0FCA                      u1661 0227  
                    u1901 02FA                      u2461 05E7                      u2381 0595  
                    u1485 0D65                      u1821 0E11                      u1741 00B0  
                    u2541 0759                      u1910 0303                      u2390 059E  
                    u1830 0E31                      u1750 00BC                      u2550 0760  
                    u1575 0FBE                      u1911 0302                      u2471 0603  
                    u2391 059D                      u2375 0584                      u1831 0E30  
                    u1751 00BB                      u2551 075F                      u1680 023D  
                    u2480 060E                      u2472 060A                      u1840 0E39  
                    u1760 00CD                      u2560 077C                      u1681 023C  
                    u2481 060D                      u1841 0E38                      u1825 0E0E  
                    u1761 00CC                      u2561 077B                      u2617 06A2  
                    u1930 031F                      u1850 02A8                      u1770 010F  
                    u2490 041E                      u2570 0782                      u1595 0FD0  
                    u1675 022D                      u1931 031E                      u1851 02A7  
                    u1835 0E2D                      u1771 010E                      u2491 041D  
                    u2571 0781                      u2627 06B9                      u1940 0325  
                    u1860 02BD                      u1780 011B                      u2580 079E  
                    u1925 0310                      u1781 011A                      u2581 079D  
                    u2637 06D3                      u1950 0F18                      u1870 02D8  
                    u1790 0128                      u2590 07A4                      u1695 0241  
                    u1951 0F17                      u1871 02D7                      u1791 0127  
                    u2495 041A                      u2591 07A3                      u2647 06EA  
                    u1960 0F24                      u1880 02DF                      u1961 0F23  
                    u1881 02DE                      u1865 02B9                      u2657 0704  
                    u1970 0F36                      u1971 0F35                      u2667 071B  
                    u2677 0DFD                      u1990 0F49                      u1991 0F48  
                    u1895 02EB                      u2687 0E1C                      u1985 0F3A  
                    _RCIF 0065                      _OERR 00C1                      _SPEN 00C7  
                    _TXEN 04C5                      _TXIF 0064                      _beep 0DEB  
                    _main 063E              ___ftpack@arg 0070              ___ftpack@exp 0073  
                    btemp 007E                      start 0000             __CFG_IESO$OFF 0000  
       ___bmul@multiplier 0073             __CFG_MCLRE$ON 0000              ___fttol@exp1 0029  
            ___fttol@lval 0025                     ?_beep 0070           __end_of___aldiv 0295  
                   ?_main 0070           __end_of___awdiv 0F85           __end_of___ftadd 063E  
                   STR_10 008A                     STR_11 0067                     STR_12 0009  
           __CFG_WDTE$OFF 0000           __end_of___ftdiv 0403                     _ANSEL 0188  
         ___awdiv@divisor 0076           __end_of___fttol 033B                     _T2CON 0012  
                   _IRCF0 047C                     _IRCF1 047D                     _IRCF2 047E  
         __end_of___lwdiv 0DEB           __end_of___lwmod 0D9E           ___awdiv@counter 0020  
                   _RCREG 001A                     _SPBRG 0099                     _PORTA 0005  
                   _PORTB 0006                     _PORTC 0007                     _PORTD 0008  
                   _PORTE 0009                     _TRISA 0085                     _TRISB 0086  
                   _TRISC 0087                     _TRISD 0088                     _TRISE 0089  
                   _TXREG 0019             __CFG_PWRTE$ON 0000              main@sw2press 0056  
            ___lltoft@exp 007D            __CFG_FCMEN$OFF 0000           __end_of_picInit 0CF9  
           ___ftpack@sign 0074                     _motor 014E            __CFG_BOREN$OFF 0000  
                   pclath 000A                     status 0003                     wtemp0 007E  
         __initialization 0CA5              __end_of_beep 0E3B              __end_of_main 0800  
                  ??_beep 0072                    ??_main 0052             ___fttol@sign1 0024  
                  _CCPR1L 0015                    _CCPR2L 001B          ___awdiv@dividend 0078  
                  ?_motor 002A          __end_of___ftpack 1000                    _ANSELH 0189  
        __end_of___lltoft 0D5B                    ___bmul 0CC7                 ??___aldiv 0078  
            ?_uartReceive 0070                    ___wmul 0CF9                 ??___awdiv 007A  
               ??___ftadd 0044                 ??___ftdiv 0034                 ??___fttol 0020  
               ??___lwdiv 0074                 ??___lwmod 0074          ___awdiv@quotient 0022  
               ??_picInit 0070          __end_of_uartInit 04F9   __end_of__initialization 0CA5  
              ___ftadd@f1 003E                ___ftadd@f2 0041                ___ftdiv@f1 0031  
              ___ftdiv@f2 002E                ___ftdiv@f3 0039       ___bmul@multiplicand 0070  
              ___fttol@f1 0078            __pcstackCOMMON 0070                ___lltoft@c 002A  
           __end_of_motor 01F0                   ??_motor 002B           uartNumber@digit 007B  
              __pmaintext 063E                   ?___bmul 0070                   ?___wmul 0070  
      __size_of_setPwmRC1 006B        __size_of_setPwmRC2 006B                   _CCP1CON 0017  
                 _CCP2CON 001D                 ?___ftpack 0070                 ?___lltoft 002A  
              __stringtab 0003                 ?_uartInit 004B                   ___aldiv 01F0  
         __size_of___bmul 0018                   ___awdiv 0F11                   ___ftadd 04F9  
                 ___ftdiv 033B           __size_of___wmul 002A                   ___fttol 0295  
                 ___lwdiv 0D9E                   ___lwmod 0D5B      __size_of_uartReceive 0012  
              ??___ftpack 0075                ??___lltoft 007C                   _picInit 0CDF  
        ___aldiv@dividend 0074             ?_uartTransmit 0070      end_of_initialization 0CA5  
       __end_of_setPwmRC1 0F11         __end_of_setPwmRC2 0EA6               uartNumber@i 002D  
             uartNumber@j 002E                ??_uartInit 007E          ___aldiv@quotient 0022  
             uartPutstr@s 0072                _uartNumber 00B3                _uartPutstr 0092  
           setPwmRC1@freq 0026             setPwmRC2@freq 0026             setPwmRC1@duty 0028  
           setPwmRC2@duty 0028            ??_uartTransmit 0070                main@dataRx 0057  
             ___ftdiv@exp 003C            __end_of___bmul 0CDF            __end_of___wmul 0D23  
     start_initialization 0CA5  __CFG_FOSC$INTRC_NOCLKOUT 0000                  ??___bmul 0071  
             ?_uartNumber 0078                  ??___wmul 0074               ?_uartPutstr 0070  
       __size_of___ftpack 007B         __size_of___lltoft 0038             __pcstackBANK0 0020  
     __end_of__stringdata 0091            uartNumber@base 007A      __end_of_uartTransmit 0CB5  
        ___lwdiv@dividend 0072                  ?___aldiv 0070                  ?___awdiv 0076  
                ?___ftadd 003E                 __ptext450 0CDF                 __ptext451 0DEB  
               __ptext460 033B                 __ptext452 014E                 __ptext461 0295  
               __ptext453 0EA6                 __ptext445 0403                 __ptext462 0F11  
               __ptext454 0E3B                 __ptext446 0092                 __ptext463 01F0  
               __ptext455 0CC7                 __ptext447 0CB5                 __ptext464 0D23  
               __ptext456 0CF9                 __ptext448 00B3                 __ptext465 0F85  
               __ptext457 0D9E                 __ptext449 0CA9                 __ptext466 0000  
               __ptext458 0D5B                 __ptext459 04F9                  ?___ftdiv 002E  
                ?___fttol 0078                  ?___lwdiv 0070         __size_of_uartInit 00F6  
                ?___lwmod 0070                 beep@times 0074                 __pstrings 0003  
              setPwmRC1@a 007C                setPwmRC2@a 007C                  ?_picInit 0070  
        ___lwdiv@quotient 0075               beep@delayMs 0070            __size_of_motor 00A2  
     __size_of_uartNumber 009B       __size_of_uartPutstr 0021           ___aldiv@divisor 0070  
         ___aldiv@counter 0020            ___wmul@product 0074                motor@speed 002F  
               _setPwmRC1 0EA6                 _setPwmRC2 0E3B             ??_uartReceive 0070  
      uartTransmit@dataTx 0070               __stringbase 0008               __stringdata 0009  
       ___wmul@multiplier 0070             motor@maxSpeed 002D                ?_setPwmRC1 0026  
              ?_setPwmRC2 0026          __size_of___aldiv 00A5          __size_of___awdiv 0074  
        __size_of___ftadd 0145          __size_of___ftdiv 00C8          __size_of___fttol 00A6  
        __size_of___lwdiv 004D          __size_of___lwmod 0043                  ___ftpack 0F85  
      __end_of__stringtab 0009                  ___lltoft 0D23       __end_of_uartReceive 0CC7  
        __size_of_picInit 001A           ___lwdiv@divisor 0070           ___lwdiv@counter 0077  
                beep@loop 0075     __size_of_uartTransmit 000C             __size_of_beep 0050  
           __size_of_main 01C2              _uartInit$550 004F                  _uartInit 0403  
            ??_uartNumber 0020              ??_uartPutstr 0071              motor@speedLM 002E  
            motor@speedRM 002A              _uartTransmit 0CA9        __end_of_uartNumber 014E  
            uartNumber@di 0023              uartNumber@no 0078        __end_of_uartPutstr 00B3  
        ___lwmod@dividend 0072               ??_setPwmRC1 007B               ??_setPwmRC2 007B  
               stringcode 0003               _uartReceive 0CB5           ___lwmod@divisor 0070  
         ___lwmod@counter 0075                  stringdir 0003                  stringtab 0003  
            ___aldiv@sign 0021  
